
Dump of file libVarArgs.obj

File Type: COFF OBJECT

varargs:
  0000000000000000: A9BC7BFD  stp         fp,lr,[sp,#-0x40]!
  0000000000000004: A9010FE2  stp         x2,x3,[sp,#0x10]
  0000000000000008: A90217E4  stp         x4,x5,[sp,#0x20]
  000000000000000C: A9031FE6  stp         x6,x7,[sp,#0x30]
  0000000000000010: 910003FD  mov         fp,sp
  0000000000000014: 94000000  bl          __security_push_cookie
  0000000000000018: D132C3FF  sub         sp,sp,#0xCB0
  000000000000001C: F9001FE0  str         x0,[sp,#0x38]
  0000000000000020: B9001FE1  str         w1,[sp,#0x1C]
  0000000000000024: 913343E8  add         x8,sp,#0xCD0
  0000000000000028: F90003E8  str         x8,[sp]
  000000000000002C: F9401FE8  ldr         x8,[sp,#0x38]
  0000000000000030: F9400108  ldr         x8,[x8]
  0000000000000034: F9000BE8  str         x8,[sp,#0x10]
  0000000000000038: 52800008  mov         w8,#0
  000000000000003C: B9000BE8  str         w8,[sp,#8]
  0000000000000040: 14000004  b           $LN4
$LN2:
  0000000000000044: B9400BE8  ldr         w8,[sp,#8]
  0000000000000048: 11000508  add         w8,w8,#1
  000000000000004C: B9000BE8  str         w8,[sp,#8]
$LN4:
  0000000000000050: B9401FE9  ldr         w9,[sp,#0x1C]
  0000000000000054: B9400BE8  ldr         w8,[sp,#8]
  0000000000000058: 6B09011F  cmp         w8,w9
  000000000000005C: 5400F66A  bge         $LN3
  0000000000000060: F9401FE8  ldr         x8,[sp,#0x38]
  0000000000000064: 9100210A  add         x10,x8,#8
  0000000000000068: B9400BE8  ldr         w8,[sp,#8]
  000000000000006C: 93407D09  sxtw        x9,w8
  0000000000000070: D2800088  mov         x8,#4
  0000000000000074: 9B087D29  mul         x9,x9,x8
  0000000000000078: F9400148  ldr         x8,[x10]
  000000000000007C: 8B090108  add         x8,x8,x9
  0000000000000080: B9400108  ldr         w8,[x8]
  0000000000000084: B90023E8  str         w8,[sp,#0x20]
  0000000000000088: B94023E8  ldr         w8,[sp,#0x20]
  000000000000008C: B9001BE8  str         w8,[sp,#0x18]
  0000000000000090: B9401BE8  ldr         w8,[sp,#0x18]
  0000000000000094: 71015D1F  cmp         w8,#0x57
  0000000000000098: 5400F3E8  bhi         $LN95
  000000000000009C: B9401BEA  ldr         w10,[sp,#0x18]
  00000000000000A0: 1000F509  adr         x9,$LN100
  00000000000000A4: B8AA5928  ldrsw       x8,[x9,w10 uxtw #2]
  00000000000000A8: 10007969  adr         x9,$LN51
  00000000000000AC: 8B080928  add         x8,x9,x8,lsl #2
  00000000000000B0: D61F0100  br          x8
$LN7:
  00000000000000B4: D2800009  mov         x9,#0
  00000000000000B8: F94003E8  ldr         x8,[sp]
  00000000000000BC: CB080128  sub         x8,x9,x8
  00000000000000C0: 92400508  and         x8,x8,#3
  00000000000000C4: 91002109  add         x9,x8,#8
  00000000000000C8: F94003E8  ldr         x8,[sp]
  00000000000000CC: 8B090108  add         x8,x8,x9
  00000000000000D0: F90003E8  str         x8,[sp]
  00000000000000D4: F94003E8  ldr         x8,[sp]
  00000000000000D8: D1002108  sub         x8,x8,#8
  00000000000000DC: B9400108  ldr         w8,[x8]
  00000000000000E0: B90027E8  str         w8,[sp,#0x24]
  00000000000000E4: 910093E1  add         x1,sp,#0x24
  00000000000000E8: B9400BE0  ldr         w0,[sp,#8]
  00000000000000EC: F9400BE8  ldr         x8,[sp,#0x10]
  00000000000000F0: D63F0100  blr         x8
  00000000000000F4: 1400078C  b           $LN188
$LN8:
  00000000000000F8: D2800009  mov         x9,#0
  00000000000000FC: F94003E8  ldr         x8,[sp]
  0000000000000100: CB080128  sub         x8,x9,x8
  0000000000000104: 92400908  and         x8,x8,#7
  0000000000000108: 91002109  add         x9,x8,#8
  000000000000010C: F94003E8  ldr         x8,[sp]
  0000000000000110: 8B090108  add         x8,x8,x9
  0000000000000114: F90003E8  str         x8,[sp]
  0000000000000118: F94003E8  ldr         x8,[sp]
  000000000000011C: D1002108  sub         x8,x8,#8
  0000000000000120: FD400110  ldr         d16,[x8]
  0000000000000124: FD0067F0  str         d16,[sp,#0xC8]
  0000000000000128: 910323E1  add         x1,sp,#0xC8
  000000000000012C: B9400BE0  ldr         w0,[sp,#8]
  0000000000000130: F9400BE8  ldr         x8,[sp,#0x10]
  0000000000000134: D63F0100  blr         x8
  0000000000000138: 1400077B  b           $LN188
$LN9:
  000000000000013C: D2800009  mov         x9,#0
  0000000000000140: F94003E8  ldr         x8,[sp]
  0000000000000144: CB080128  sub         x8,x9,x8
  0000000000000148: 92400908  and         x8,x8,#7
  000000000000014C: 91002109  add         x9,x8,#8
  0000000000000150: F94003E8  ldr         x8,[sp]
  0000000000000154: 8B090108  add         x8,x8,x9
  0000000000000158: F90003E8  str         x8,[sp]
  000000000000015C: F94003E8  ldr         x8,[sp]
  0000000000000160: D1002108  sub         x8,x8,#8
  0000000000000164: FD400110  ldr         d16,[x8]
  0000000000000168: FD006BF0  str         d16,[sp,#0xD0]
  000000000000016C: 910343E1  add         x1,sp,#0xD0
  0000000000000170: B9400BE0  ldr         w0,[sp,#8]
  0000000000000174: F9400BE8  ldr         x8,[sp,#0x10]
  0000000000000178: D63F0100  blr         x8
  000000000000017C: 1400076A  b           $LN188
$LN10:
  0000000000000180: D2800009  mov         x9,#0
  0000000000000184: F94003E8  ldr         x8,[sp]
  0000000000000188: CB080128  sub         x8,x9,x8
  000000000000018C: 92400908  and         x8,x8,#7
  0000000000000190: 91002109  add         x9,x8,#8
  0000000000000194: F94003E8  ldr         x8,[sp]
  0000000000000198: 8B090108  add         x8,x8,x9
  000000000000019C: F90003E8  str         x8,[sp]
  00000000000001A0: F94003E8  ldr         x8,[sp]
  00000000000001A4: D1002108  sub         x8,x8,#8
  00000000000001A8: F9400108  ldr         x8,[x8]
  00000000000001AC: F9003BE8  str         x8,[sp,#0x70]
  00000000000001B0: 9101C3E1  add         x1,sp,#0x70
  00000000000001B4: B9400BE0  ldr         w0,[sp,#8]
  00000000000001B8: F9400BE8  ldr         x8,[sp,#0x10]
  00000000000001BC: D63F0100  blr         x8
  00000000000001C0: 14000759  b           $LN188
$LN11:
  00000000000001C4: D2800009  mov         x9,#0
  00000000000001C8: F94003E8  ldr         x8,[sp]
  00000000000001CC: CB080128  sub         x8,x9,x8
  00000000000001D0: 92400508  and         x8,x8,#3
  00000000000001D4: 91002109  add         x9,x8,#8
  00000000000001D8: F94003E8  ldr         x8,[sp]
  00000000000001DC: 8B090108  add         x8,x8,x9
  00000000000001E0: F90003E8  str         x8,[sp]
  00000000000001E4: F94003E8  ldr         x8,[sp]
  00000000000001E8: D1002108  sub         x8,x8,#8
  00000000000001EC: 9100A3E9  add         x9,sp,#0x28
  00000000000001F0: B9400108  ldr         w8,[x8]
  00000000000001F4: B9000128  str         w8,[x9]
  00000000000001F8: 9100B3E9  add         x9,sp,#0x2C
  00000000000001FC: 9100A3E8  add         x8,sp,#0x28
  0000000000000200: B9400108  ldr         w8,[x8]
  0000000000000204: B9000128  str         w8,[x9]
  0000000000000208: 9100B3E1  add         x1,sp,#0x2C
  000000000000020C: B9400BE0  ldr         w0,[sp,#8]
  0000000000000210: F9400BE8  ldr         x8,[sp,#0x10]
  0000000000000214: D63F0100  blr         x8
  0000000000000218: 14000743  b           $LN188
$LN12:
  000000000000021C: D2800009  mov         x9,#0
  0000000000000220: F94003E8  ldr         x8,[sp]
  0000000000000224: CB080128  sub         x8,x9,x8
  0000000000000228: 92400508  and         x8,x8,#3
  000000000000022C: 91002109  add         x9,x8,#8
  0000000000000230: F94003E8  ldr         x8,[sp]
  0000000000000234: 8B090108  add         x8,x8,x9
  0000000000000238: F90003E8  str         x8,[sp]
  000000000000023C: F94003E8  ldr         x8,[sp]
  0000000000000240: D1002108  sub         x8,x8,#8
  0000000000000244: 9100C3E9  add         x9,sp,#0x30
  0000000000000248: B9400108  ldr         w8,[x8]
  000000000000024C: B9000128  str         w8,[x9]
  0000000000000250: BD4033F0  ldr         s16,[sp,#0x30]
  0000000000000254: BD0037F0  str         s16,[sp,#0x34]
  0000000000000258: 9100D3E1  add         x1,sp,#0x34
  000000000000025C: B9400BE0  ldr         w0,[sp,#8]
  0000000000000260: F9400BE8  ldr         x8,[sp,#0x10]
  0000000000000264: D63F0100  blr         x8
  0000000000000268: 1400072F  b           $LN188
$LN13:
  000000000000026C: D2800009  mov         x9,#0
  0000000000000270: F94003E8  ldr         x8,[sp]
  0000000000000274: CB080128  sub         x8,x9,x8
  0000000000000278: 92400908  and         x8,x8,#7
  000000000000027C: 91002109  add         x9,x8,#8
  0000000000000280: F94003E8  ldr         x8,[sp]
  0000000000000284: 8B090108  add         x8,x8,x9
  0000000000000288: F90003E8  str         x8,[sp]
  000000000000028C: F94003E8  ldr         x8,[sp]
  0000000000000290: D1002108  sub         x8,x8,#8
  0000000000000294: 9101E3E9  add         x9,sp,#0x78
  0000000000000298: F9400108  ldr         x8,[x8]
  000000000000029C: F9000128  str         x8,[x9]
  00000000000002A0: FD403FF0  ldr         d16,[sp,#0x78]
  00000000000002A4: FD0043F0  str         d16,[sp,#0x80]
  00000000000002A8: 910203E1  add         x1,sp,#0x80
  00000000000002AC: B9400BE0  ldr         w0,[sp,#8]
  00000000000002B0: F9400BE8  ldr         x8,[sp,#0x10]
  00000000000002B4: D63F0100  blr         x8
  00000000000002B8: 1400071B  b           $LN188
$LN14:
  00000000000002BC: D2800009  mov         x9,#0
  00000000000002C0: F94003E8  ldr         x8,[sp]
  00000000000002C4: CB080128  sub         x8,x9,x8
  00000000000002C8: 92400908  and         x8,x8,#7
  00000000000002CC: 91002109  add         x9,x8,#8
  00000000000002D0: F94003E8  ldr         x8,[sp]
  00000000000002D4: 8B090108  add         x8,x8,x9
  00000000000002D8: F90003E8  str         x8,[sp]
  00000000000002DC: F94003E8  ldr         x8,[sp]
  00000000000002E0: D1002108  sub         x8,x8,#8
  00000000000002E4: 910223E9  add         x9,sp,#0x88
  00000000000002E8: F9400108  ldr         x8,[x8]
  00000000000002EC: F9000128  str         x8,[x9]
  00000000000002F0: 910243E9  add         x9,sp,#0x90
  00000000000002F4: 910223E8  add         x8,sp,#0x88
  00000000000002F8: F9400108  ldr         x8,[x8]
  00000000000002FC: F9000128  str         x8,[x9]
  0000000000000300: 910243E1  add         x1,sp,#0x90
  0000000000000304: B9400BE0  ldr         w0,[sp,#8]
  0000000000000308: F9400BE8  ldr         x8,[sp,#0x10]
  000000000000030C: D63F0100  blr         x8
  0000000000000310: 14000705  b           $LN188
$LN15:
  0000000000000314: D2800009  mov         x9,#0
  0000000000000318: F94003E8  ldr         x8,[sp]
  000000000000031C: CB080128  sub         x8,x9,x8
  0000000000000320: 92400508  and         x8,x8,#3
  0000000000000324: 91002109  add         x9,x8,#8
  0000000000000328: F94003E8  ldr         x8,[sp]
  000000000000032C: 8B090108  add         x8,x8,x9
  0000000000000330: F90003E8  str         x8,[sp]
  0000000000000334: F94003E8  ldr         x8,[sp]
  0000000000000338: D1002108  sub         x8,x8,#8
  000000000000033C: 910263E9  add         x9,sp,#0x98
  0000000000000340: F9400108  ldr         x8,[x8]
  0000000000000344: F9000128  str         x8,[x9]
  0000000000000348: 910283E9  add         x9,sp,#0xA0
  000000000000034C: 910263E8  add         x8,sp,#0x98
  0000000000000350: F9400108  ldr         x8,[x8]
  0000000000000354: F9000128  str         x8,[x9]
  0000000000000358: 910283E1  add         x1,sp,#0xA0
  000000000000035C: B9400BE0  ldr         w0,[sp,#8]
  0000000000000360: F9400BE8  ldr         x8,[sp,#0x10]
  0000000000000364: D63F0100  blr         x8
  0000000000000368: 140006EF  b           $LN188
$LN16:
  000000000000036C: D2800009  mov         x9,#0
  0000000000000370: F94003E8  ldr         x8,[sp]
  0000000000000374: CB080128  sub         x8,x9,x8
  0000000000000378: 92400508  and         x8,x8,#3
  000000000000037C: 91002109  add         x9,x8,#8
  0000000000000380: F94003E8  ldr         x8,[sp]
  0000000000000384: 8B090108  add         x8,x8,x9
  0000000000000388: F90003E8  str         x8,[sp]
  000000000000038C: F94003E8  ldr         x8,[sp]
  0000000000000390: D1002108  sub         x8,x8,#8
  0000000000000394: 9102A3E9  add         x9,sp,#0xA8
  0000000000000398: F9400108  ldr         x8,[x8]
  000000000000039C: F9000128  str         x8,[x9]
  00000000000003A0: 9102C3E9  add         x9,sp,#0xB0
  00000000000003A4: 9102A3E8  add         x8,sp,#0xA8
  00000000000003A8: F9400108  ldr         x8,[x8]
  00000000000003AC: F9000128  str         x8,[x9]
  00000000000003B0: 9102C3E1  add         x1,sp,#0xB0
  00000000000003B4: B9400BE0  ldr         w0,[sp,#8]
  00000000000003B8: F9400BE8  ldr         x8,[sp,#0x10]
  00000000000003BC: D63F0100  blr         x8
  00000000000003C0: 140006D9  b           $LN188
$LN17:
  00000000000003C4: D2800009  mov         x9,#0
  00000000000003C8: F94003E8  ldr         x8,[sp]
  00000000000003CC: CB080128  sub         x8,x9,x8
  00000000000003D0: 92400908  and         x8,x8,#7
  00000000000003D4: 91004109  add         x9,x8,#0x10
  00000000000003D8: F94003E8  ldr         x8,[sp]
  00000000000003DC: 8B090108  add         x8,x8,x9
  00000000000003E0: F90003E8  str         x8,[sp]
  00000000000003E4: F94003E8  ldr         x8,[sp]
  00000000000003E8: D1004108  sub         x8,x8,#0x10
  00000000000003EC: 910823EA  add         x10,sp,#0x208
  00000000000003F0: A9402109  ldp         x9,x8,[x8]
  00000000000003F4: A9002149  stp         x9,x8,[x10]
  00000000000003F8: 912EA3EA  add         x10,sp,#0xBA8
  00000000000003FC: 910823E8  add         x8,sp,#0x208
  0000000000000400: A9402109  ldp         x9,x8,[x8]
  0000000000000404: A9002149  stp         x9,x8,[x10]
  0000000000000408: 912EA3E1  add         x1,sp,#0xBA8
  000000000000040C: B9400BE0  ldr         w0,[sp,#8]
  0000000000000410: F9400BE8  ldr         x8,[sp,#0x10]
  0000000000000414: D63F0100  blr         x8
  0000000000000418: 140006C3  b           $LN188
$LN18:
  000000000000041C: D2800009  mov         x9,#0
  0000000000000420: F94003E8  ldr         x8,[sp]
  0000000000000424: CB080128  sub         x8,x9,x8
  0000000000000428: 92400908  and         x8,x8,#7
  000000000000042C: 91004109  add         x9,x8,#0x10
  0000000000000430: F94003E8  ldr         x8,[sp]
  0000000000000434: 8B090108  add         x8,x8,x9
  0000000000000438: F90003E8  str         x8,[sp]
  000000000000043C: F94003E8  ldr         x8,[sp]
  0000000000000440: D1004108  sub         x8,x8,#0x10
  0000000000000444: 9108A3EA  add         x10,sp,#0x228
  0000000000000448: A9402109  ldp         x9,x8,[x8]
  000000000000044C: A9002149  stp         x9,x8,[x10]
  0000000000000450: 9108E3EA  add         x10,sp,#0x238
  0000000000000454: 9108A3E8  add         x8,sp,#0x228
  0000000000000458: A9402109  ldp         x9,x8,[x8]
  000000000000045C: A9002149  stp         x9,x8,[x10]
  0000000000000460: 9108E3E1  add         x1,sp,#0x238
  0000000000000464: B9400BE0  ldr         w0,[sp,#8]
  0000000000000468: F9400BE8  ldr         x8,[sp,#0x10]
  000000000000046C: D63F0100  blr         x8
  0000000000000470: 140006AD  b           $LN188
$LN19:
  0000000000000474: D2800009  mov         x9,#0
  0000000000000478: F94003E8  ldr         x8,[sp]
  000000000000047C: CB080128  sub         x8,x9,x8
  0000000000000480: 92400508  and         x8,x8,#3
  0000000000000484: 91002109  add         x9,x8,#8
  0000000000000488: F94003E8  ldr         x8,[sp]
  000000000000048C: 8B090108  add         x8,x8,x9
  0000000000000490: F90003E8  str         x8,[sp]
  0000000000000494: F94003E8  ldr         x8,[sp]
  0000000000000498: D1002108  sub         x8,x8,#8
  000000000000049C: 9102E3E9  add         x9,sp,#0xB8
  00000000000004A0: F9400108  ldr         x8,[x8]
  00000000000004A4: F9000128  str         x8,[x9]
  00000000000004A8: 910303E9  add         x9,sp,#0xC0
  00000000000004AC: 9102E3E8  add         x8,sp,#0xB8
  00000000000004B0: F9400108  ldr         x8,[x8]
  00000000000004B4: F9000128  str         x8,[x9]
  00000000000004B8: 910303E1  add         x1,sp,#0xC0
  00000000000004BC: B9400BE0  ldr         w0,[sp,#8]
  00000000000004C0: F9400BE8  ldr         x8,[sp,#0x10]
  00000000000004C4: D63F0100  blr         x8
  00000000000004C8: 14000697  b           $LN188
$LN20:
  00000000000004CC: D2800009  mov         x9,#0
  00000000000004D0: F94003E8  ldr         x8,[sp]
  00000000000004D4: CB080128  sub         x8,x9,x8
  00000000000004D8: 92400508  and         x8,x8,#3
  00000000000004DC: 91002109  add         x9,x8,#8
  00000000000004E0: F94003E8  ldr         x8,[sp]
  00000000000004E4: 8B090108  add         x8,x8,x9
  00000000000004E8: F90003E8  str         x8,[sp]
  00000000000004EC: F94003E8  ldr         x8,[sp]
  00000000000004F0: D1002108  sub         x8,x8,#8
  00000000000004F4: 910103E9  add         x9,sp,#0x40
  00000000000004F8: F9400108  ldr         x8,[x8]
  00000000000004FC: F9000128  str         x8,[x9]
  0000000000000500: BD4047F0  ldr         s16,[sp,#0x44]
  0000000000000504: BD004FF0  str         s16,[sp,#0x4C]
  0000000000000508: BD4043F0  ldr         s16,[sp,#0x40]
  000000000000050C: BD004BF0  str         s16,[sp,#0x48]
  0000000000000510: 910123E1  add         x1,sp,#0x48
  0000000000000514: B9400BE0  ldr         w0,[sp,#8]
  0000000000000518: F9400BE8  ldr         x8,[sp,#0x10]
  000000000000051C: D63F0100  blr         x8
  0000000000000520: 14000681  b           $LN188
$LN21:
  0000000000000524: D2800009  mov         x9,#0
  0000000000000528: F94003E8  ldr         x8,[sp]
  000000000000052C: CB080128  sub         x8,x9,x8
  0000000000000530: 92400908  and         x8,x8,#7
  0000000000000534: 91004109  add         x9,x8,#0x10
  0000000000000538: F94003E8  ldr         x8,[sp]
  000000000000053C: 8B090108  add         x8,x8,x9
  0000000000000540: F90003E8  str         x8,[sp]
  0000000000000544: F94003E8  ldr         x8,[sp]
  0000000000000548: D1004108  sub         x8,x8,#0x10
  000000000000054C: 910923EA  add         x10,sp,#0x248
  0000000000000550: A9402109  ldp         x9,x8,[x8]
  0000000000000554: A9002149  stp         x9,x8,[x10]
  0000000000000558: 912EE3EA  add         x10,sp,#0xBB8
  000000000000055C: 910923E8  add         x8,sp,#0x248
  0000000000000560: A9402109  ldp         x9,x8,[x8]
  0000000000000564: A9002149  stp         x9,x8,[x10]
  0000000000000568: 912EE3E1  add         x1,sp,#0xBB8
  000000000000056C: B9400BE0  ldr         w0,[sp,#8]
  0000000000000570: F9400BE8  ldr         x8,[sp,#0x10]
  0000000000000574: D63F0100  blr         x8
  0000000000000578: 1400066B  b           $LN188
$LN22:
  000000000000057C: D2800009  mov         x9,#0
  0000000000000580: F94003E8  ldr         x8,[sp]
  0000000000000584: CB080128  sub         x8,x9,x8
  0000000000000588: 92400908  and         x8,x8,#7
  000000000000058C: 91004109  add         x9,x8,#0x10
  0000000000000590: F94003E8  ldr         x8,[sp]
  0000000000000594: 8B090108  add         x8,x8,x9
  0000000000000598: F90003E8  str         x8,[sp]
  000000000000059C: F94003E8  ldr         x8,[sp]
  00000000000005A0: D1004108  sub         x8,x8,#0x10
  00000000000005A4: 9109A3EA  add         x10,sp,#0x268
  00000000000005A8: A9402109  ldp         x9,x8,[x8]
  00000000000005AC: A9002149  stp         x9,x8,[x10]
  00000000000005B0: 9109E3EA  add         x10,sp,#0x278
  00000000000005B4: 9109A3E8  add         x8,sp,#0x268
  00000000000005B8: A9402109  ldp         x9,x8,[x8]
  00000000000005BC: A9002149  stp         x9,x8,[x10]
  00000000000005C0: 9109E3E1  add         x1,sp,#0x278
  00000000000005C4: B9400BE0  ldr         w0,[sp,#8]
  00000000000005C8: F9400BE8  ldr         x8,[sp,#0x10]
  00000000000005CC: D63F0100  blr         x8
  00000000000005D0: 14000655  b           $LN188
$LN23:
  00000000000005D4: D2800009  mov         x9,#0
  00000000000005D8: F94003E8  ldr         x8,[sp]
  00000000000005DC: CB080128  sub         x8,x9,x8
  00000000000005E0: 92400908  and         x8,x8,#7
  00000000000005E4: 91004109  add         x9,x8,#0x10
  00000000000005E8: F94003E8  ldr         x8,[sp]
  00000000000005EC: 8B090108  add         x8,x8,x9
  00000000000005F0: F90003E8  str         x8,[sp]
  00000000000005F4: F94003E8  ldr         x8,[sp]
  00000000000005F8: D1004108  sub         x8,x8,#0x10
  00000000000005FC: 910A23EA  add         x10,sp,#0x288
  0000000000000600: A9402109  ldp         x9,x8,[x8]
  0000000000000604: A9002149  stp         x9,x8,[x10]
  0000000000000608: 912C23EA  add         x10,sp,#0xB08
  000000000000060C: 910A23E8  add         x8,sp,#0x288
  0000000000000610: A9402109  ldp         x9,x8,[x8]
  0000000000000614: A9002149  stp         x9,x8,[x10]
  0000000000000618: 912C23E1  add         x1,sp,#0xB08
  000000000000061C: B9400BE0  ldr         w0,[sp,#8]
  0000000000000620: F9400BE8  ldr         x8,[sp,#0x10]
  0000000000000624: D63F0100  blr         x8
  0000000000000628: 1400063F  b           $LN188
$LN24:
  000000000000062C: D2800009  mov         x9,#0
  0000000000000630: F94003E8  ldr         x8,[sp]
  0000000000000634: CB080128  sub         x8,x9,x8
  0000000000000638: 92400908  and         x8,x8,#7
  000000000000063C: 91004109  add         x9,x8,#0x10
  0000000000000640: F94003E8  ldr         x8,[sp]
  0000000000000644: 8B090108  add         x8,x8,x9
  0000000000000648: F90003E8  str         x8,[sp]
  000000000000064C: F94003E8  ldr         x8,[sp]
  0000000000000650: D1004108  sub         x8,x8,#0x10
  0000000000000654: 910AA3EA  add         x10,sp,#0x2A8
  0000000000000658: A9402109  ldp         x9,x8,[x8]
  000000000000065C: A9002149  stp         x9,x8,[x10]
  0000000000000660: 912C63EA  add         x10,sp,#0xB18
  0000000000000664: 910AA3E8  add         x8,sp,#0x2A8
  0000000000000668: A9402109  ldp         x9,x8,[x8]
  000000000000066C: A9002149  stp         x9,x8,[x10]
  0000000000000670: 912C63E1  add         x1,sp,#0xB18
  0000000000000674: B9400BE0  ldr         w0,[sp,#8]
  0000000000000678: F9400BE8  ldr         x8,[sp,#0x10]
  000000000000067C: D63F0100  blr         x8
  0000000000000680: 14000629  b           $LN188
$LN25:
  0000000000000684: D2800009  mov         x9,#0
  0000000000000688: F94003E8  ldr         x8,[sp]
  000000000000068C: CB080128  sub         x8,x9,x8
  0000000000000690: 92400908  and         x8,x8,#7
  0000000000000694: 91004109  add         x9,x8,#0x10
  0000000000000698: F94003E8  ldr         x8,[sp]
  000000000000069C: 8B090108  add         x8,x8,x9
  00000000000006A0: F90003E8  str         x8,[sp]
  00000000000006A4: F94003E8  ldr         x8,[sp]
  00000000000006A8: D1004108  sub         x8,x8,#0x10
  00000000000006AC: 910363EA  add         x10,sp,#0xD8
  00000000000006B0: A9402109  ldp         x9,x8,[x8]
  00000000000006B4: A9002149  stp         x9,x8,[x10]
  00000000000006B8: FD4073F0  ldr         d16,[sp,#0xE0]
  00000000000006BC: FD007BF0  str         d16,[sp,#0xF0]
  00000000000006C0: FD406FF0  ldr         d16,[sp,#0xD8]
  00000000000006C4: FD0077F0  str         d16,[sp,#0xE8]
  00000000000006C8: 9103A3E1  add         x1,sp,#0xE8
  00000000000006CC: B9400BE0  ldr         w0,[sp,#8]
  00000000000006D0: F9400BE8  ldr         x8,[sp,#0x10]
  00000000000006D4: D63F0100  blr         x8
  00000000000006D8: 14000613  b           $LN188
$LN26:
  00000000000006DC: D2800009  mov         x9,#0
  00000000000006E0: F94003E8  ldr         x8,[sp]
  00000000000006E4: CB080128  sub         x8,x9,x8
  00000000000006E8: 92400908  and         x8,x8,#7
  00000000000006EC: 91004109  add         x9,x8,#0x10
  00000000000006F0: F94003E8  ldr         x8,[sp]
  00000000000006F4: 8B090108  add         x8,x8,x9
  00000000000006F8: F90003E8  str         x8,[sp]
  00000000000006FC: F94003E8  ldr         x8,[sp]
  0000000000000700: D1004108  sub         x8,x8,#0x10
  0000000000000704: 910B23EA  add         x10,sp,#0x2C8
  0000000000000708: A9402109  ldp         x9,x8,[x8]
  000000000000070C: A9002149  stp         x9,x8,[x10]
  0000000000000710: 910B63EA  add         x10,sp,#0x2D8
  0000000000000714: 910B23E8  add         x8,sp,#0x2C8
  0000000000000718: A9402109  ldp         x9,x8,[x8]
  000000000000071C: A9002149  stp         x9,x8,[x10]
  0000000000000720: 910B63E1  add         x1,sp,#0x2D8
  0000000000000724: B9400BE0  ldr         w0,[sp,#8]
  0000000000000728: F9400BE8  ldr         x8,[sp,#0x10]
  000000000000072C: D63F0100  blr         x8
  0000000000000730: 140005FD  b           $LN188
$LN27:
  0000000000000734: D2800009  mov         x9,#0
  0000000000000738: F94003E8  ldr         x8,[sp]
  000000000000073C: CB080128  sub         x8,x9,x8
  0000000000000740: 92400908  and         x8,x8,#7
  0000000000000744: 91004109  add         x9,x8,#0x10
  0000000000000748: F94003E8  ldr         x8,[sp]
  000000000000074C: 8B090108  add         x8,x8,x9
  0000000000000750: F90003E8  str         x8,[sp]
  0000000000000754: F94003E8  ldr         x8,[sp]
  0000000000000758: D1004108  sub         x8,x8,#0x10
  000000000000075C: 910BA3EA  add         x10,sp,#0x2E8
  0000000000000760: A9402109  ldp         x9,x8,[x8]
  0000000000000764: A9002149  stp         x9,x8,[x10]
  0000000000000768: 910BE3EA  add         x10,sp,#0x2F8
  000000000000076C: 910BA3E8  add         x8,sp,#0x2E8
  0000000000000770: A9402109  ldp         x9,x8,[x8]
  0000000000000774: A9002149  stp         x9,x8,[x10]
  0000000000000778: 910BE3E1  add         x1,sp,#0x2F8
  000000000000077C: B9400BE0  ldr         w0,[sp,#8]
  0000000000000780: F9400BE8  ldr         x8,[sp,#0x10]
  0000000000000784: D63F0100  blr         x8
  0000000000000788: 140005E7  b           $LN188
$LN28:
  000000000000078C: D2800009  mov         x9,#0
  0000000000000790: F94003E8  ldr         x8,[sp]
  0000000000000794: CB080128  sub         x8,x9,x8
  0000000000000798: 92400908  and         x8,x8,#7
  000000000000079C: 91004109  add         x9,x8,#0x10
  00000000000007A0: F94003E8  ldr         x8,[sp]
  00000000000007A4: 8B090108  add         x8,x8,x9
  00000000000007A8: F90003E8  str         x8,[sp]
  00000000000007AC: F94003E8  ldr         x8,[sp]
  00000000000007B0: D1004108  sub         x8,x8,#0x10
  00000000000007B4: 910C23EA  add         x10,sp,#0x308
  00000000000007B8: A9402109  ldp         x9,x8,[x8]
  00000000000007BC: A9002149  stp         x9,x8,[x10]
  00000000000007C0: 910C63EA  add         x10,sp,#0x318
  00000000000007C4: 910C23E8  add         x8,sp,#0x308
  00000000000007C8: A9402109  ldp         x9,x8,[x8]
  00000000000007CC: A9002149  stp         x9,x8,[x10]
  00000000000007D0: 910C63E1  add         x1,sp,#0x318
  00000000000007D4: B9400BE0  ldr         w0,[sp,#8]
  00000000000007D8: F9400BE8  ldr         x8,[sp,#0x10]
  00000000000007DC: D63F0100  blr         x8
  00000000000007E0: 140005D1  b           $LN188
$LN29:
  00000000000007E4: D2800009  mov         x9,#0
  00000000000007E8: F94003E8  ldr         x8,[sp]
  00000000000007EC: CB080128  sub         x8,x9,x8
  00000000000007F0: 92400908  and         x8,x8,#7
  00000000000007F4: 91004109  add         x9,x8,#0x10
  00000000000007F8: F94003E8  ldr         x8,[sp]
  00000000000007FC: 8B090108  add         x8,x8,x9
  0000000000000800: F90003E8  str         x8,[sp]
  0000000000000804: F94003E8  ldr         x8,[sp]
  0000000000000808: D1004108  sub         x8,x8,#0x10
  000000000000080C: 910CA3EA  add         x10,sp,#0x328
  0000000000000810: A9402109  ldp         x9,x8,[x8]
  0000000000000814: A9002149  stp         x9,x8,[x10]
  0000000000000818: 910CE3EA  add         x10,sp,#0x338
  000000000000081C: 910CA3E8  add         x8,sp,#0x328
  0000000000000820: A9402109  ldp         x9,x8,[x8]
  0000000000000824: A9002149  stp         x9,x8,[x10]
  0000000000000828: 910CE3E1  add         x1,sp,#0x338
  000000000000082C: B9400BE0  ldr         w0,[sp,#8]
  0000000000000830: F9400BE8  ldr         x8,[sp,#0x10]
  0000000000000834: D63F0100  blr         x8
  0000000000000838: 140005BB  b           $LN188
$LN30:
  000000000000083C: D2800009  mov         x9,#0
  0000000000000840: F94003E8  ldr         x8,[sp]
  0000000000000844: CB080128  sub         x8,x9,x8
  0000000000000848: 92400908  and         x8,x8,#7
  000000000000084C: 91004109  add         x9,x8,#0x10
  0000000000000850: F94003E8  ldr         x8,[sp]
  0000000000000854: 8B090108  add         x8,x8,x9
  0000000000000858: F90003E8  str         x8,[sp]
  000000000000085C: F94003E8  ldr         x8,[sp]
  0000000000000860: D1004108  sub         x8,x8,#0x10
  0000000000000864: 910D23EA  add         x10,sp,#0x348
  0000000000000868: A9402109  ldp         x9,x8,[x8]
  000000000000086C: A9002149  stp         x9,x8,[x10]
  0000000000000870: 910D63EA  add         x10,sp,#0x358
  0000000000000874: 910D23E8  add         x8,sp,#0x348
  0000000000000878: A9402109  ldp         x9,x8,[x8]
  000000000000087C: A9002149  stp         x9,x8,[x10]
  0000000000000880: 910D63E1  add         x1,sp,#0x358
  0000000000000884: B9400BE0  ldr         w0,[sp,#8]
  0000000000000888: F9400BE8  ldr         x8,[sp,#0x10]
  000000000000088C: D63F0100  blr         x8
  0000000000000890: 140005A5  b           $LN188
$LN31:
  0000000000000894: D2800009  mov         x9,#0
  0000000000000898: F94003E8  ldr         x8,[sp]
  000000000000089C: CB080128  sub         x8,x9,x8
  00000000000008A0: 92400508  and         x8,x8,#3
  00000000000008A4: 91004109  add         x9,x8,#0x10
  00000000000008A8: F94003E8  ldr         x8,[sp]
  00000000000008AC: 8B090108  add         x8,x8,x9
  00000000000008B0: F90003E8  str         x8,[sp]
  00000000000008B4: F94003E8  ldr         x8,[sp]
  00000000000008B8: D1004109  sub         x9,x8,#0x10
  00000000000008BC: 9103E3EA  add         x10,sp,#0xF8
  00000000000008C0: F9400128  ldr         x8,[x9]
  00000000000008C4: F9000148  str         x8,[x10]
  00000000000008C8: B9400928  ldr         w8,[x9,#8]
  00000000000008CC: B9000948  str         w8,[x10,#8]
  00000000000008D0: 912BE3EA  add         x10,sp,#0xAF8
  00000000000008D4: 9103E3E9  add         x9,sp,#0xF8
  00000000000008D8: F9400128  ldr         x8,[x9]
  00000000000008DC: F9000148  str         x8,[x10]
  00000000000008E0: B9400928  ldr         w8,[x9,#8]
  00000000000008E4: B9000948  str         w8,[x10,#8]
  00000000000008E8: 912BE3E1  add         x1,sp,#0xAF8
  00000000000008EC: B9400BE0  ldr         w0,[sp,#8]
  00000000000008F0: F9400BE8  ldr         x8,[sp,#0x10]
  00000000000008F4: D63F0100  blr         x8
  00000000000008F8: 1400058B  b           $LN188
$LN32:
  00000000000008FC: D2800009  mov         x9,#0
  0000000000000900: F94003E8  ldr         x8,[sp]
  0000000000000904: CB080128  sub         x8,x9,x8
  0000000000000908: 92400508  and         x8,x8,#3
  000000000000090C: 91004109  add         x9,x8,#0x10
  0000000000000910: F94003E8  ldr         x8,[sp]
  0000000000000914: 8B090108  add         x8,x8,x9
  0000000000000918: F90003E8  str         x8,[sp]
  000000000000091C: F94003E8  ldr         x8,[sp]
  0000000000000920: D1004109  sub         x9,x8,#0x10
  0000000000000924: 910483EA  add         x10,sp,#0x120
  0000000000000928: F9400128  ldr         x8,[x9]
  000000000000092C: F9000148  str         x8,[x10]
  0000000000000930: B9400928  ldr         w8,[x9,#8]
  0000000000000934: B9000948  str         w8,[x10,#8]
  0000000000000938: 912A63EA  add         x10,sp,#0xA98
  000000000000093C: 910483E9  add         x9,sp,#0x120
  0000000000000940: F9400128  ldr         x8,[x9]
  0000000000000944: F9000148  str         x8,[x10]
  0000000000000948: B9400928  ldr         w8,[x9,#8]
  000000000000094C: B9000948  str         w8,[x10,#8]
  0000000000000950: 912A63E1  add         x1,sp,#0xA98
  0000000000000954: B9400BE0  ldr         w0,[sp,#8]
  0000000000000958: F9400BE8  ldr         x8,[sp,#0x10]
  000000000000095C: D63F0100  blr         x8
  0000000000000960: 14000571  b           $LN188
$LN33:
  0000000000000964: D2800009  mov         x9,#0
  0000000000000968: F94003E8  ldr         x8,[sp]
  000000000000096C: CB080128  sub         x8,x9,x8
  0000000000000970: 92400908  and         x8,x8,#7
  0000000000000974: 91004109  add         x9,x8,#0x10
  0000000000000978: F94003E8  ldr         x8,[sp]
  000000000000097C: 8B090108  add         x8,x8,x9
  0000000000000980: F90003E8  str         x8,[sp]
  0000000000000984: F94003E8  ldr         x8,[sp]
  0000000000000988: D1004108  sub         x8,x8,#0x10
  000000000000098C: 910DA3EA  add         x10,sp,#0x368
  0000000000000990: A9402109  ldp         x9,x8,[x8]
  0000000000000994: A9002149  stp         x9,x8,[x10]
  0000000000000998: 912CA3EA  add         x10,sp,#0xB28
  000000000000099C: 910DA3E8  add         x8,sp,#0x368
  00000000000009A0: A9402109  ldp         x9,x8,[x8]
  00000000000009A4: A9002149  stp         x9,x8,[x10]
  00000000000009A8: 912CA3E1  add         x1,sp,#0xB28
  00000000000009AC: B9400BE0  ldr         w0,[sp,#8]
  00000000000009B0: F9400BE8  ldr         x8,[sp,#0x10]
  00000000000009B4: D63F0100  blr         x8
  00000000000009B8: 1400055B  b           $LN188
$LN34:
  00000000000009BC: D2800009  mov         x9,#0
  00000000000009C0: F94003E8  ldr         x8,[sp]
  00000000000009C4: CB080128  sub         x8,x9,x8
  00000000000009C8: 92400908  and         x8,x8,#7
  00000000000009CC: 91004109  add         x9,x8,#0x10
  00000000000009D0: F94003E8  ldr         x8,[sp]
  00000000000009D4: 8B090108  add         x8,x8,x9
  00000000000009D8: F90003E8  str         x8,[sp]
  00000000000009DC: F94003E8  ldr         x8,[sp]
  00000000000009E0: D1004108  sub         x8,x8,#0x10
  00000000000009E4: 910E23EA  add         x10,sp,#0x388
  00000000000009E8: A9402109  ldp         x9,x8,[x8]
  00000000000009EC: A9002149  stp         x9,x8,[x10]
  00000000000009F0: 910E63EA  add         x10,sp,#0x398
  00000000000009F4: 910E23E8  add         x8,sp,#0x388
  00000000000009F8: A9402109  ldp         x9,x8,[x8]
  00000000000009FC: A9002149  stp         x9,x8,[x10]
  0000000000000A00: 910E63E1  add         x1,sp,#0x398
  0000000000000A04: B9400BE0  ldr         w0,[sp,#8]
  0000000000000A08: F9400BE8  ldr         x8,[sp,#0x10]
  0000000000000A0C: D63F0100  blr         x8
  0000000000000A10: 14000545  b           $LN188
$LN35:
  0000000000000A14: D2800009  mov         x9,#0
  0000000000000A18: F94003E8  ldr         x8,[sp]
  0000000000000A1C: CB080128  sub         x8,x9,x8
  0000000000000A20: 92400508  and         x8,x8,#3
  0000000000000A24: 91004109  add         x9,x8,#0x10
  0000000000000A28: F94003E8  ldr         x8,[sp]
  0000000000000A2C: 8B090108  add         x8,x8,x9
  0000000000000A30: F90003E8  str         x8,[sp]
  0000000000000A34: F94003E8  ldr         x8,[sp]
  0000000000000A38: D1004109  sub         x9,x8,#0x10
  0000000000000A3C: 910503EA  add         x10,sp,#0x140
  0000000000000A40: F9400128  ldr         x8,[x9]
  0000000000000A44: F9000148  str         x8,[x10]
  0000000000000A48: B9400928  ldr         w8,[x9,#8]
  0000000000000A4C: B9000948  str         w8,[x10,#8]
  0000000000000A50: 912AA3EA  add         x10,sp,#0xAA8
  0000000000000A54: 910503E9  add         x9,sp,#0x140
  0000000000000A58: F9400128  ldr         x8,[x9]
  0000000000000A5C: F9000148  str         x8,[x10]
  0000000000000A60: B9400928  ldr         w8,[x9,#8]
  0000000000000A64: B9000948  str         w8,[x10,#8]
  0000000000000A68: 912AA3E1  add         x1,sp,#0xAA8
  0000000000000A6C: B9400BE0  ldr         w0,[sp,#8]
  0000000000000A70: F9400BE8  ldr         x8,[sp,#0x10]
  0000000000000A74: D63F0100  blr         x8
  0000000000000A78: 1400052B  b           $LN188
$LN36:
  0000000000000A7C: D2800009  mov         x9,#0
  0000000000000A80: F94003E8  ldr         x8,[sp]
  0000000000000A84: CB080128  sub         x8,x9,x8
  0000000000000A88: 92400508  and         x8,x8,#3
  0000000000000A8C: 91004109  add         x9,x8,#0x10
  0000000000000A90: F94003E8  ldr         x8,[sp]
  0000000000000A94: 8B090108  add         x8,x8,x9
  0000000000000A98: F90003E8  str         x8,[sp]
  0000000000000A9C: F94003E8  ldr         x8,[sp]
  0000000000000AA0: D1004109  sub         x9,x8,#0x10
  0000000000000AA4: 9105A3EA  add         x10,sp,#0x168
  0000000000000AA8: F9400128  ldr         x8,[x9]
  0000000000000AAC: F9000148  str         x8,[x10]
  0000000000000AB0: B9400928  ldr         w8,[x9,#8]
  0000000000000AB4: B9000948  str         w8,[x10,#8]
  0000000000000AB8: 912AE3EA  add         x10,sp,#0xAB8
  0000000000000ABC: 9105A3E9  add         x9,sp,#0x168
  0000000000000AC0: F9400128  ldr         x8,[x9]
  0000000000000AC4: F9000148  str         x8,[x10]
  0000000000000AC8: B9400928  ldr         w8,[x9,#8]
  0000000000000ACC: B9000948  str         w8,[x10,#8]
  0000000000000AD0: 912AE3E1  add         x1,sp,#0xAB8
  0000000000000AD4: B9400BE0  ldr         w0,[sp,#8]
  0000000000000AD8: F9400BE8  ldr         x8,[sp,#0x10]
  0000000000000ADC: D63F0100  blr         x8
  0000000000000AE0: 14000511  b           $LN188
$LN37:
  0000000000000AE4: D2800009  mov         x9,#0
  0000000000000AE8: F94003E8  ldr         x8,[sp]
  0000000000000AEC: CB080128  sub         x8,x9,x8
  0000000000000AF0: 92400908  and         x8,x8,#7
  0000000000000AF4: 91004109  add         x9,x8,#0x10
  0000000000000AF8: F94003E8  ldr         x8,[sp]
  0000000000000AFC: 8B090108  add         x8,x8,x9
  0000000000000B00: F90003E8  str         x8,[sp]
  0000000000000B04: F94003E8  ldr         x8,[sp]
  0000000000000B08: D1004108  sub         x8,x8,#0x10
  0000000000000B0C: 910EA3EA  add         x10,sp,#0x3A8
  0000000000000B10: A9402109  ldp         x9,x8,[x8]
  0000000000000B14: A9002149  stp         x9,x8,[x10]
  0000000000000B18: 912E63EA  add         x10,sp,#0xB98
  0000000000000B1C: 910EA3E8  add         x8,sp,#0x3A8
  0000000000000B20: A9402109  ldp         x9,x8,[x8]
  0000000000000B24: A9002149  stp         x9,x8,[x10]
  0000000000000B28: 912E63E1  add         x1,sp,#0xB98
  0000000000000B2C: B9400BE0  ldr         w0,[sp,#8]
  0000000000000B30: F9400BE8  ldr         x8,[sp,#0x10]
  0000000000000B34: D63F0100  blr         x8
  0000000000000B38: 140004FB  b           $LN188
$LN38:
  0000000000000B3C: D2800009  mov         x9,#0
  0000000000000B40: F94003E8  ldr         x8,[sp]
  0000000000000B44: CB080128  sub         x8,x9,x8
  0000000000000B48: 92400908  and         x8,x8,#7
  0000000000000B4C: 91004109  add         x9,x8,#0x10
  0000000000000B50: F94003E8  ldr         x8,[sp]
  0000000000000B54: 8B090108  add         x8,x8,x9
  0000000000000B58: F90003E8  str         x8,[sp]
  0000000000000B5C: F94003E8  ldr         x8,[sp]
  0000000000000B60: D1004108  sub         x8,x8,#0x10
  0000000000000B64: 910F23EA  add         x10,sp,#0x3C8
  0000000000000B68: A9402109  ldp         x9,x8,[x8]
  0000000000000B6C: A9002149  stp         x9,x8,[x10]
  0000000000000B70: 910F63EA  add         x10,sp,#0x3D8
  0000000000000B74: 910F23E8  add         x8,sp,#0x3C8
  0000000000000B78: A9402109  ldp         x9,x8,[x8]
  0000000000000B7C: A9002149  stp         x9,x8,[x10]
  0000000000000B80: 910F63E1  add         x1,sp,#0x3D8
  0000000000000B84: B9400BE0  ldr         w0,[sp,#8]
  0000000000000B88: F9400BE8  ldr         x8,[sp,#0x10]
  0000000000000B8C: D63F0100  blr         x8
  0000000000000B90: 140004E5  b           $LN188
$LN39:
  0000000000000B94: F94003E8  ldr         x8,[sp]
  0000000000000B98: 91002108  add         x8,x8,#8
  0000000000000B9C: F90003E8  str         x8,[sp]
  0000000000000BA0: F94003E8  ldr         x8,[sp]
  0000000000000BA4: D1002108  sub         x8,x8,#8
  0000000000000BA8: F940010A  ldr         x10,[x8]
  0000000000000BAC: 911803EB  add         x11,sp,#0x600
  0000000000000BB0: A9402149  ldp         x9,x8,[x10]
  0000000000000BB4: A9002169  stp         x9,x8,[x11]
  0000000000000BB8: F9400948  ldr         x8,[x10,#0x10]
  0000000000000BBC: F9000968  str         x8,[x11,#0x10]
  0000000000000BC0: 913103EB  add         x11,sp,#0xC40
  0000000000000BC4: 911803EA  add         x10,sp,#0x600
  0000000000000BC8: A9402149  ldp         x9,x8,[x10]
  0000000000000BCC: A9002169  stp         x9,x8,[x11]
  0000000000000BD0: F9400948  ldr         x8,[x10,#0x10]
  0000000000000BD4: F9000968  str         x8,[x11,#0x10]
  0000000000000BD8: 913103E1  add         x1,sp,#0xC40
  0000000000000BDC: B9400BE0  ldr         w0,[sp,#8]
  0000000000000BE0: F9400BE8  ldr         x8,[sp,#0x10]
  0000000000000BE4: D63F0100  blr         x8
  0000000000000BE8: 140004CF  b           $LN188
$LN40:
  0000000000000BEC: F94003E8  ldr         x8,[sp]
  0000000000000BF0: 91002108  add         x8,x8,#8
  0000000000000BF4: F90003E8  str         x8,[sp]
  0000000000000BF8: F94003E8  ldr         x8,[sp]
  0000000000000BFC: D1002108  sub         x8,x8,#8
  0000000000000C00: F940010A  ldr         x10,[x8]
  0000000000000C04: 9118C3EB  add         x11,sp,#0x630
  0000000000000C08: A9402149  ldp         x9,x8,[x10]
  0000000000000C0C: A9002169  stp         x9,x8,[x11]
  0000000000000C10: F9400948  ldr         x8,[x10,#0x10]
  0000000000000C14: F9000968  str         x8,[x11,#0x10]
  0000000000000C18: 9130A3EB  add         x11,sp,#0xC28
  0000000000000C1C: 9118C3EA  add         x10,sp,#0x630
  0000000000000C20: A9402149  ldp         x9,x8,[x10]
  0000000000000C24: A9002169  stp         x9,x8,[x11]
  0000000000000C28: F9400948  ldr         x8,[x10,#0x10]
  0000000000000C2C: F9000968  str         x8,[x11,#0x10]
  0000000000000C30: 9130A3E1  add         x1,sp,#0xC28
  0000000000000C34: B9400BE0  ldr         w0,[sp,#8]
  0000000000000C38: F9400BE8  ldr         x8,[sp,#0x10]
  0000000000000C3C: D63F0100  blr         x8
  0000000000000C40: 140004B9  b           $LN188
$LN41:
  0000000000000C44: F94003E8  ldr         x8,[sp]
  0000000000000C48: 91002108  add         x8,x8,#8
  0000000000000C4C: F90003E8  str         x8,[sp]
  0000000000000C50: F94003E8  ldr         x8,[sp]
  0000000000000C54: D1002108  sub         x8,x8,#8
  0000000000000C58: F940010A  ldr         x10,[x8]
  0000000000000C5C: 911983EB  add         x11,sp,#0x660
  0000000000000C60: A9402149  ldp         x9,x8,[x10]
  0000000000000C64: A9002169  stp         x9,x8,[x11]
  0000000000000C68: F9400948  ldr         x8,[x10,#0x10]
  0000000000000C6C: F9000968  str         x8,[x11,#0x10]
  0000000000000C70: 913043EB  add         x11,sp,#0xC10
  0000000000000C74: 911983EA  add         x10,sp,#0x660
  0000000000000C78: A9402149  ldp         x9,x8,[x10]
  0000000000000C7C: A9002169  stp         x9,x8,[x11]
  0000000000000C80: F9400948  ldr         x8,[x10,#0x10]
  0000000000000C84: F9000968  str         x8,[x11,#0x10]
  0000000000000C88: 913043E1  add         x1,sp,#0xC10
  0000000000000C8C: B9400BE0  ldr         w0,[sp,#8]
  0000000000000C90: F9400BE8  ldr         x8,[sp,#0x10]
  0000000000000C94: D63F0100  blr         x8
  0000000000000C98: 140004A3  b           $LN188
$LN42:
  0000000000000C9C: F94003E8  ldr         x8,[sp]
  0000000000000CA0: 91002108  add         x8,x8,#8
  0000000000000CA4: F90003E8  str         x8,[sp]
  0000000000000CA8: F94003E8  ldr         x8,[sp]
  0000000000000CAC: D1002108  sub         x8,x8,#8
  0000000000000CB0: F940010A  ldr         x10,[x8]
  0000000000000CB4: 911A43EB  add         x11,sp,#0x690
  0000000000000CB8: A9402149  ldp         x9,x8,[x10]
  0000000000000CBC: A9002169  stp         x9,x8,[x11]
  0000000000000CC0: F9400948  ldr         x8,[x10,#0x10]
  0000000000000CC4: F9000968  str         x8,[x11,#0x10]
  0000000000000CC8: 911AA3EB  add         x11,sp,#0x6A8
  0000000000000CCC: 911A43EA  add         x10,sp,#0x690
  0000000000000CD0: A9402149  ldp         x9,x8,[x10]
  0000000000000CD4: A9002169  stp         x9,x8,[x11]
  0000000000000CD8: F9400948  ldr         x8,[x10,#0x10]
  0000000000000CDC: F9000968  str         x8,[x11,#0x10]
  0000000000000CE0: 911AA3E1  add         x1,sp,#0x6A8
  0000000000000CE4: B9400BE0  ldr         w0,[sp,#8]
  0000000000000CE8: F9400BE8  ldr         x8,[sp,#0x10]
  0000000000000CEC: D63F0100  blr         x8
  0000000000000CF0: 1400048D  b           $LN188
$LN43:
  0000000000000CF4: F94003E8  ldr         x8,[sp]
  0000000000000CF8: 91002108  add         x8,x8,#8
  0000000000000CFC: F90003E8  str         x8,[sp]
  0000000000000D00: F94003E8  ldr         x8,[sp]
  0000000000000D04: D1002108  sub         x8,x8,#8
  0000000000000D08: F940010A  ldr         x10,[x8]
  0000000000000D0C: 911B03EB  add         x11,sp,#0x6C0
  0000000000000D10: A9402149  ldp         x9,x8,[x10]
  0000000000000D14: A9002169  stp         x9,x8,[x11]
  0000000000000D18: F9400948  ldr         x8,[x10,#0x10]
  0000000000000D1C: F9000968  str         x8,[x11,#0x10]
  0000000000000D20: 911B63EB  add         x11,sp,#0x6D8
  0000000000000D24: 911B03EA  add         x10,sp,#0x6C0
  0000000000000D28: A9402149  ldp         x9,x8,[x10]
  0000000000000D2C: A9002169  stp         x9,x8,[x11]
  0000000000000D30: F9400948  ldr         x8,[x10,#0x10]
  0000000000000D34: F9000968  str         x8,[x11,#0x10]
  0000000000000D38: 911B63E1  add         x1,sp,#0x6D8
  0000000000000D3C: B9400BE0  ldr         w0,[sp,#8]
  0000000000000D40: F9400BE8  ldr         x8,[sp,#0x10]
  0000000000000D44: D63F0100  blr         x8
  0000000000000D48: 14000477  b           $LN188
$LN44:
  0000000000000D4C: F94003E8  ldr         x8,[sp]
  0000000000000D50: 91002108  add         x8,x8,#8
  0000000000000D54: F90003E8  str         x8,[sp]
  0000000000000D58: F94003E8  ldr         x8,[sp]
  0000000000000D5C: D1002108  sub         x8,x8,#8
  0000000000000D60: F940010A  ldr         x10,[x8]
  0000000000000D64: 911BC3EB  add         x11,sp,#0x6F0
  0000000000000D68: A9402149  ldp         x9,x8,[x10]
  0000000000000D6C: A9002169  stp         x9,x8,[x11]
  0000000000000D70: F9400948  ldr         x8,[x10,#0x10]
  0000000000000D74: F9000968  str         x8,[x11,#0x10]
  0000000000000D78: 911C23EB  add         x11,sp,#0x708
  0000000000000D7C: 911BC3EA  add         x10,sp,#0x6F0
  0000000000000D80: A9402149  ldp         x9,x8,[x10]
  0000000000000D84: A9002169  stp         x9,x8,[x11]
  0000000000000D88: F9400948  ldr         x8,[x10,#0x10]
  0000000000000D8C: F9000968  str         x8,[x11,#0x10]
  0000000000000D90: 911C23E1  add         x1,sp,#0x708
  0000000000000D94: B9400BE0  ldr         w0,[sp,#8]
  0000000000000D98: F9400BE8  ldr         x8,[sp,#0x10]
  0000000000000D9C: D63F0100  blr         x8
  0000000000000DA0: 14000461  b           $LN188
$LN45:
  0000000000000DA4: F94003E8  ldr         x8,[sp]
  0000000000000DA8: 91002108  add         x8,x8,#8
  0000000000000DAC: F90003E8  str         x8,[sp]
  0000000000000DB0: F94003E8  ldr         x8,[sp]
  0000000000000DB4: D1002108  sub         x8,x8,#8
  0000000000000DB8: F940010A  ldr         x10,[x8]
  0000000000000DBC: 911C83EB  add         x11,sp,#0x720
  0000000000000DC0: A9402149  ldp         x9,x8,[x10]
  0000000000000DC4: A9002169  stp         x9,x8,[x11]
  0000000000000DC8: F9400948  ldr         x8,[x10,#0x10]
  0000000000000DCC: F9000968  str         x8,[x11,#0x10]
  0000000000000DD0: 911CE3EB  add         x11,sp,#0x738
  0000000000000DD4: 911C83EA  add         x10,sp,#0x720
  0000000000000DD8: A9402149  ldp         x9,x8,[x10]
  0000000000000DDC: A9002169  stp         x9,x8,[x11]
  0000000000000DE0: F9400948  ldr         x8,[x10,#0x10]
  0000000000000DE4: F9000968  str         x8,[x11,#0x10]
  0000000000000DE8: 911CE3E1  add         x1,sp,#0x738
  0000000000000DEC: B9400BE0  ldr         w0,[sp,#8]
  0000000000000DF0: F9400BE8  ldr         x8,[sp,#0x10]
  0000000000000DF4: D63F0100  blr         x8
  0000000000000DF8: 1400044B  b           $LN188
$LN46:
  0000000000000DFC: F94003E8  ldr         x8,[sp]
  0000000000000E00: 91002108  add         x8,x8,#8
  0000000000000E04: F90003E8  str         x8,[sp]
  0000000000000E08: F94003E8  ldr         x8,[sp]
  0000000000000E0C: D1002108  sub         x8,x8,#8
  0000000000000E10: F940010A  ldr         x10,[x8]
  0000000000000E14: 911D43EB  add         x11,sp,#0x750
  0000000000000E18: A9402149  ldp         x9,x8,[x10]
  0000000000000E1C: A9002169  stp         x9,x8,[x11]
  0000000000000E20: F9400948  ldr         x8,[x10,#0x10]
  0000000000000E24: F9000968  str         x8,[x11,#0x10]
  0000000000000E28: 911DA3EB  add         x11,sp,#0x768
  0000000000000E2C: 911D43EA  add         x10,sp,#0x750
  0000000000000E30: A9402149  ldp         x9,x8,[x10]
  0000000000000E34: A9002169  stp         x9,x8,[x11]
  0000000000000E38: F9400948  ldr         x8,[x10,#0x10]
  0000000000000E3C: F9000968  str         x8,[x11,#0x10]
  0000000000000E40: 911DA3E1  add         x1,sp,#0x768
  0000000000000E44: B9400BE0  ldr         w0,[sp,#8]
  0000000000000E48: F9400BE8  ldr         x8,[sp,#0x10]
  0000000000000E4C: D63F0100  blr         x8
  0000000000000E50: 14000435  b           $LN188
$LN47:
  0000000000000E54: D2800009  mov         x9,#0
  0000000000000E58: F94003E8  ldr         x8,[sp]
  0000000000000E5C: CB080128  sub         x8,x9,x8
  0000000000000E60: 92400508  and         x8,x8,#3
  0000000000000E64: 91004109  add         x9,x8,#0x10
  0000000000000E68: F94003E8  ldr         x8,[sp]
  0000000000000E6C: 8B090108  add         x8,x8,x9
  0000000000000E70: F90003E8  str         x8,[sp]
  0000000000000E74: F94003E8  ldr         x8,[sp]
  0000000000000E78: D1004109  sub         x9,x8,#0x10
  0000000000000E7C: 9105E3EA  add         x10,sp,#0x178
  0000000000000E80: F9400128  ldr         x8,[x9]
  0000000000000E84: F9000148  str         x8,[x10]
  0000000000000E88: B9400928  ldr         w8,[x9,#8]
  0000000000000E8C: B9000948  str         w8,[x10,#8]
  0000000000000E90: 912B23EA  add         x10,sp,#0xAC8
  0000000000000E94: 9105E3E9  add         x9,sp,#0x178
  0000000000000E98: F9400128  ldr         x8,[x9]
  0000000000000E9C: F9000148  str         x8,[x10]
  0000000000000EA0: B9400928  ldr         w8,[x9,#8]
  0000000000000EA4: B9000948  str         w8,[x10,#8]
  0000000000000EA8: 912B23E1  add         x1,sp,#0xAC8
  0000000000000EAC: B9400BE0  ldr         w0,[sp,#8]
  0000000000000EB0: F9400BE8  ldr         x8,[sp,#0x10]
  0000000000000EB4: D63F0100  blr         x8
  0000000000000EB8: 1400041B  b           $LN188
$LN48:
  0000000000000EBC: D2800009  mov         x9,#0
  0000000000000EC0: F94003E8  ldr         x8,[sp]
  0000000000000EC4: CB080128  sub         x8,x9,x8
  0000000000000EC8: 92400508  and         x8,x8,#3
  0000000000000ECC: 91004109  add         x9,x8,#0x10
  0000000000000ED0: F94003E8  ldr         x8,[sp]
  0000000000000ED4: 8B090108  add         x8,x8,x9
  0000000000000ED8: F90003E8  str         x8,[sp]
  0000000000000EDC: F94003E8  ldr         x8,[sp]
  0000000000000EE0: D1004109  sub         x9,x8,#0x10
  0000000000000EE4: 910623EA  add         x10,sp,#0x188
  0000000000000EE8: F9400128  ldr         x8,[x9]
  0000000000000EEC: F9000148  str         x8,[x10]
  0000000000000EF0: B9400928  ldr         w8,[x9,#8]
  0000000000000EF4: B9000948  str         w8,[x10,#8]
  0000000000000EF8: 912B63EA  add         x10,sp,#0xAD8
  0000000000000EFC: 910623E9  add         x9,sp,#0x188
  0000000000000F00: F9400128  ldr         x8,[x9]
  0000000000000F04: F9000148  str         x8,[x10]
  0000000000000F08: B9400928  ldr         w8,[x9,#8]
  0000000000000F0C: B9000948  str         w8,[x10,#8]
  0000000000000F10: 912B63E1  add         x1,sp,#0xAD8
  0000000000000F14: B9400BE0  ldr         w0,[sp,#8]
  0000000000000F18: F9400BE8  ldr         x8,[sp,#0x10]
  0000000000000F1C: D63F0100  blr         x8
  0000000000000F20: 14000401  b           $LN188
$LN49:
  0000000000000F24: D2800009  mov         x9,#0
  0000000000000F28: F94003E8  ldr         x8,[sp]
  0000000000000F2C: CB080128  sub         x8,x9,x8
  0000000000000F30: 92400908  and         x8,x8,#7
  0000000000000F34: 91004109  add         x9,x8,#0x10
  0000000000000F38: F94003E8  ldr         x8,[sp]
  0000000000000F3C: 8B090108  add         x8,x8,x9
  0000000000000F40: F90003E8  str         x8,[sp]
  0000000000000F44: F94003E8  ldr         x8,[sp]
  0000000000000F48: D1004108  sub         x8,x8,#0x10
  0000000000000F4C: 910FA3EA  add         x10,sp,#0x3E8
  0000000000000F50: A9402109  ldp         x9,x8,[x8]
  0000000000000F54: A9002149  stp         x9,x8,[x10]
  0000000000000F58: 912CE3EA  add         x10,sp,#0xB38
  0000000000000F5C: 910FA3E8  add         x8,sp,#0x3E8
  0000000000000F60: A9402109  ldp         x9,x8,[x8]
  0000000000000F64: A9002149  stp         x9,x8,[x10]
  0000000000000F68: 912CE3E1  add         x1,sp,#0xB38
  0000000000000F6C: B9400BE0  ldr         w0,[sp,#8]
  0000000000000F70: F9400BE8  ldr         x8,[sp,#0x10]
  0000000000000F74: D63F0100  blr         x8
  0000000000000F78: 140003EB  b           $LN188
$LN50:
  0000000000000F7C: D2800009  mov         x9,#0
  0000000000000F80: F94003E8  ldr         x8,[sp]
  0000000000000F84: CB080128  sub         x8,x9,x8
  0000000000000F88: 92400908  and         x8,x8,#7
  0000000000000F8C: 91004109  add         x9,x8,#0x10
  0000000000000F90: F94003E8  ldr         x8,[sp]
  0000000000000F94: 8B090108  add         x8,x8,x9
  0000000000000F98: F90003E8  str         x8,[sp]
  0000000000000F9C: F94003E8  ldr         x8,[sp]
  0000000000000FA0: D1004108  sub         x8,x8,#0x10
  0000000000000FA4: 911023EA  add         x10,sp,#0x408
  0000000000000FA8: A9402109  ldp         x9,x8,[x8]
  0000000000000FAC: A9002149  stp         x9,x8,[x10]
  0000000000000FB0: 911063EA  add         x10,sp,#0x418
  0000000000000FB4: 911023E8  add         x8,sp,#0x408
  0000000000000FB8: A9402109  ldp         x9,x8,[x8]
  0000000000000FBC: A9002149  stp         x9,x8,[x10]
  0000000000000FC0: 911063E1  add         x1,sp,#0x418
  0000000000000FC4: B9400BE0  ldr         w0,[sp,#8]
  0000000000000FC8: F9400BE8  ldr         x8,[sp,#0x10]
  0000000000000FCC: D63F0100  blr         x8
  0000000000000FD0: 140003D5  b           $LN188
$LN51:
  0000000000000FD4: D2800009  mov         x9,#0
  0000000000000FD8: F94003E8  ldr         x8,[sp]
  0000000000000FDC: CB080128  sub         x8,x9,x8
  0000000000000FE0: 92400508  and         x8,x8,#3
  0000000000000FE4: 91004109  add         x9,x8,#0x10
  0000000000000FE8: F94003E8  ldr         x8,[sp]
  0000000000000FEC: 8B090108  add         x8,x8,x9
  0000000000000FF0: F90003E8  str         x8,[sp]
  0000000000000FF4: F94003E8  ldr         x8,[sp]
  0000000000000FF8: D1004109  sub         x9,x8,#0x10
  0000000000000FFC: 9104C3EA  add         x10,sp,#0x130
  0000000000001000: F9400128  ldr         x8,[x9]
  0000000000001004: F9000148  str         x8,[x10]
  0000000000001008: B9400928  ldr         w8,[x9,#8]
  000000000000100C: B9000948  str         w8,[x10,#8]
  0000000000001010: 912BA3EA  add         x10,sp,#0xAE8
  0000000000001014: 9104C3E9  add         x9,sp,#0x130
  0000000000001018: F9400128  ldr         x8,[x9]
  000000000000101C: F9000148  str         x8,[x10]
  0000000000001020: B9400928  ldr         w8,[x9,#8]
  0000000000001024: B9000948  str         w8,[x10,#8]
  0000000000001028: 912BA3E1  add         x1,sp,#0xAE8
  000000000000102C: B9400BE0  ldr         w0,[sp,#8]
  0000000000001030: F9400BE8  ldr         x8,[sp,#0x10]
  0000000000001034: D63F0100  blr         x8
  0000000000001038: 140003BB  b           $LN188
$LN52:
  000000000000103C: D2800009  mov         x9,#0
  0000000000001040: F94003E8  ldr         x8,[sp]
  0000000000001044: CB080128  sub         x8,x9,x8
  0000000000001048: 92400508  and         x8,x8,#3
  000000000000104C: 91004109  add         x9,x8,#0x10
  0000000000001050: F94003E8  ldr         x8,[sp]
  0000000000001054: 8B090108  add         x8,x8,x9
  0000000000001058: F90003E8  str         x8,[sp]
  000000000000105C: F94003E8  ldr         x8,[sp]
  0000000000001060: D1004109  sub         x9,x8,#0x10
  0000000000001064: 910143EA  add         x10,sp,#0x50
  0000000000001068: F9400128  ldr         x8,[x9]
  000000000000106C: F9000148  str         x8,[x10]
  0000000000001070: B9400928  ldr         w8,[x9,#8]
  0000000000001074: B9000948  str         w8,[x10,#8]
  0000000000001078: BD405BF0  ldr         s16,[sp,#0x58]
  000000000000107C: BD006BF0  str         s16,[sp,#0x68]
  0000000000001080: BD4057F0  ldr         s16,[sp,#0x54]
  0000000000001084: BD0067F0  str         s16,[sp,#0x64]
  0000000000001088: BD4053F0  ldr         s16,[sp,#0x50]
  000000000000108C: BD0063F0  str         s16,[sp,#0x60]
  0000000000001090: 910183E1  add         x1,sp,#0x60
  0000000000001094: B9400BE0  ldr         w0,[sp,#8]
  0000000000001098: F9400BE8  ldr         x8,[sp,#0x10]
  000000000000109C: D63F0100  blr         x8
  00000000000010A0: 140003A1  b           $LN188
$LN53:
  00000000000010A4: D2800009  mov         x9,#0
  00000000000010A8: F94003E8  ldr         x8,[sp]
  00000000000010AC: CB080128  sub         x8,x9,x8
  00000000000010B0: 92400908  and         x8,x8,#7
  00000000000010B4: 91004109  add         x9,x8,#0x10
  00000000000010B8: F94003E8  ldr         x8,[sp]
  00000000000010BC: 8B090108  add         x8,x8,x9
  00000000000010C0: F90003E8  str         x8,[sp]
  00000000000010C4: F94003E8  ldr         x8,[sp]
  00000000000010C8: D1004108  sub         x8,x8,#0x10
  00000000000010CC: 9110A3EA  add         x10,sp,#0x428
  00000000000010D0: A9402109  ldp         x9,x8,[x8]
  00000000000010D4: A9002149  stp         x9,x8,[x10]
  00000000000010D8: 912D23EA  add         x10,sp,#0xB48
  00000000000010DC: 9110A3E8  add         x8,sp,#0x428
  00000000000010E0: A9402109  ldp         x9,x8,[x8]
  00000000000010E4: A9002149  stp         x9,x8,[x10]
  00000000000010E8: 912D23E1  add         x1,sp,#0xB48
  00000000000010EC: B9400BE0  ldr         w0,[sp,#8]
  00000000000010F0: F9400BE8  ldr         x8,[sp,#0x10]
  00000000000010F4: D63F0100  blr         x8
  00000000000010F8: 1400038B  b           $LN188
$LN54:
  00000000000010FC: D2800009  mov         x9,#0
  0000000000001100: F94003E8  ldr         x8,[sp]
  0000000000001104: CB080128  sub         x8,x9,x8
  0000000000001108: 92400908  and         x8,x8,#7
  000000000000110C: 91004109  add         x9,x8,#0x10
  0000000000001110: F94003E8  ldr         x8,[sp]
  0000000000001114: 8B090108  add         x8,x8,x9
  0000000000001118: F90003E8  str         x8,[sp]
  000000000000111C: F94003E8  ldr         x8,[sp]
  0000000000001120: D1004108  sub         x8,x8,#0x10
  0000000000001124: 9106A3EA  add         x10,sp,#0x1A8
  0000000000001128: A9402109  ldp         x9,x8,[x8]
  000000000000112C: A9002149  stp         x9,x8,[x10]
  0000000000001130: 9106E3EA  add         x10,sp,#0x1B8
  0000000000001134: 9106A3E8  add         x8,sp,#0x1A8
  0000000000001138: A9402109  ldp         x9,x8,[x8]
  000000000000113C: A9002149  stp         x9,x8,[x10]
  0000000000001140: 9106E3E1  add         x1,sp,#0x1B8
  0000000000001144: B9400BE0  ldr         w0,[sp,#8]
  0000000000001148: F9400BE8  ldr         x8,[sp,#0x10]
  000000000000114C: D63F0100  blr         x8
  0000000000001150: 14000375  b           $LN188
$LN55:
  0000000000001154: F94003E8  ldr         x8,[sp]
  0000000000001158: 91002108  add         x8,x8,#8
  000000000000115C: F90003E8  str         x8,[sp]
  0000000000001160: F94003E8  ldr         x8,[sp]
  0000000000001164: D1002108  sub         x8,x8,#8
  0000000000001168: F940010A  ldr         x10,[x8]
  000000000000116C: 911E03EB  add         x11,sp,#0x780
  0000000000001170: A9402149  ldp         x9,x8,[x10]
  0000000000001174: A9002169  stp         x9,x8,[x11]
  0000000000001178: F9400948  ldr         x8,[x10,#0x10]
  000000000000117C: F9000968  str         x8,[x11,#0x10]
  0000000000001180: 913163EB  add         x11,sp,#0xC58
  0000000000001184: 911E03EA  add         x10,sp,#0x780
  0000000000001188: A9402149  ldp         x9,x8,[x10]
  000000000000118C: A9002169  stp         x9,x8,[x11]
  0000000000001190: F9400948  ldr         x8,[x10,#0x10]
  0000000000001194: F9000968  str         x8,[x11,#0x10]
  0000000000001198: 913163E1  add         x1,sp,#0xC58
  000000000000119C: B9400BE0  ldr         w0,[sp,#8]
  00000000000011A0: F9400BE8  ldr         x8,[sp,#0x10]
  00000000000011A4: D63F0100  blr         x8
  00000000000011A8: 1400035F  b           $LN188
$LN56:
  00000000000011AC: F94003E8  ldr         x8,[sp]
  00000000000011B0: 91002108  add         x8,x8,#8
  00000000000011B4: F90003E8  str         x8,[sp]
  00000000000011B8: F94003E8  ldr         x8,[sp]
  00000000000011BC: D1002108  sub         x8,x8,#8
  00000000000011C0: F940010A  ldr         x10,[x8]
  00000000000011C4: 911383EB  add         x11,sp,#0x4E0
  00000000000011C8: A9402149  ldp         x9,x8,[x10]
  00000000000011CC: A9002169  stp         x9,x8,[x11]
  00000000000011D0: F9400948  ldr         x8,[x10,#0x10]
  00000000000011D4: F9000968  str         x8,[x11,#0x10]
  00000000000011D8: 912F83EB  add         x11,sp,#0xBE0
  00000000000011DC: 911383EA  add         x10,sp,#0x4E0
  00000000000011E0: A9402149  ldp         x9,x8,[x10]
  00000000000011E4: A9002169  stp         x9,x8,[x11]
  00000000000011E8: F9400948  ldr         x8,[x10,#0x10]
  00000000000011EC: F9000968  str         x8,[x11,#0x10]
  00000000000011F0: 912F83E1  add         x1,sp,#0xBE0
  00000000000011F4: B9400BE0  ldr         w0,[sp,#8]
  00000000000011F8: F9400BE8  ldr         x8,[sp,#0x10]
  00000000000011FC: D63F0100  blr         x8
  0000000000001200: 14000349  b           $LN188
$LN57:
  0000000000001204: F94003E8  ldr         x8,[sp]
  0000000000001208: 91002108  add         x8,x8,#8
  000000000000120C: F90003E8  str         x8,[sp]
  0000000000001210: F94003E8  ldr         x8,[sp]
  0000000000001214: D1002108  sub         x8,x8,#8
  0000000000001218: F940010A  ldr         x10,[x8]
  000000000000121C: 9110E3EB  add         x11,sp,#0x438
  0000000000001220: A9402149  ldp         x9,x8,[x10]
  0000000000001224: A9002169  stp         x9,x8,[x11]
  0000000000001228: F9400948  ldr         x8,[x10,#0x10]
  000000000000122C: F9000968  str         x8,[x11,#0x10]
  0000000000001230: 913223EB  add         x11,sp,#0xC88
  0000000000001234: 9110E3EA  add         x10,sp,#0x438
  0000000000001238: A9402149  ldp         x9,x8,[x10]
  000000000000123C: A9002169  stp         x9,x8,[x11]
  0000000000001240: F9400948  ldr         x8,[x10,#0x10]
  0000000000001244: F9000968  str         x8,[x11,#0x10]
  0000000000001248: 913223E1  add         x1,sp,#0xC88
  000000000000124C: B9400BE0  ldr         w0,[sp,#8]
  0000000000001250: F9400BE8  ldr         x8,[sp,#0x10]
  0000000000001254: D63F0100  blr         x8
  0000000000001258: 14000333  b           $LN188
$LN58:
  000000000000125C: F94003E8  ldr         x8,[sp]
  0000000000001260: 91002108  add         x8,x8,#8
  0000000000001264: F90003E8  str         x8,[sp]
  0000000000001268: F94003E8  ldr         x8,[sp]
  000000000000126C: D1002108  sub         x8,x8,#8
  0000000000001270: F940010A  ldr         x10,[x8]
  0000000000001274: 911503EB  add         x11,sp,#0x540
  0000000000001278: A9402149  ldp         x9,x8,[x10]
  000000000000127C: A9002169  stp         x9,x8,[x11]
  0000000000001280: F9400948  ldr         x8,[x10,#0x10]
  0000000000001284: F9000968  str         x8,[x11,#0x10]
  0000000000001288: 9115C3EB  add         x11,sp,#0x570
  000000000000128C: 911503EA  add         x10,sp,#0x540
  0000000000001290: A9402149  ldp         x9,x8,[x10]
  0000000000001294: A9002169  stp         x9,x8,[x11]
  0000000000001298: F9400948  ldr         x8,[x10,#0x10]
  000000000000129C: F9000968  str         x8,[x11,#0x10]
  00000000000012A0: 9115C3E1  add         x1,sp,#0x570
  00000000000012A4: B9400BE0  ldr         w0,[sp,#8]
  00000000000012A8: F9400BE8  ldr         x8,[sp,#0x10]
  00000000000012AC: D63F0100  blr         x8
  00000000000012B0: 1400031D  b           $LN188
$LN59:
  00000000000012B4: F94003E8  ldr         x8,[sp]
  00000000000012B8: 91002108  add         x8,x8,#8
  00000000000012BC: F90003E8  str         x8,[sp]
  00000000000012C0: F94003E8  ldr         x8,[sp]
  00000000000012C4: D1002108  sub         x8,x8,#8
  00000000000012C8: F940010A  ldr         x10,[x8]
  00000000000012CC: 911623EB  add         x11,sp,#0x588
  00000000000012D0: A9402149  ldp         x9,x8,[x10]
  00000000000012D4: A9002169  stp         x9,x8,[x11]
  00000000000012D8: F9400948  ldr         x8,[x10,#0x10]
  00000000000012DC: F9000968  str         x8,[x11,#0x10]
  00000000000012E0: 911683EB  add         x11,sp,#0x5A0
  00000000000012E4: 911623EA  add         x10,sp,#0x588
  00000000000012E8: A9402149  ldp         x9,x8,[x10]
  00000000000012EC: A9002169  stp         x9,x8,[x11]
  00000000000012F0: F9400948  ldr         x8,[x10,#0x10]
  00000000000012F4: F9000968  str         x8,[x11,#0x10]
  00000000000012F8: 911683E1  add         x1,sp,#0x5A0
  00000000000012FC: B9400BE0  ldr         w0,[sp,#8]
  0000000000001300: F9400BE8  ldr         x8,[sp,#0x10]
  0000000000001304: D63F0100  blr         x8
  0000000000001308: 14000307  b           $LN188
$LN60:
  000000000000130C: F94003E8  ldr         x8,[sp]
  0000000000001310: 91002108  add         x8,x8,#8
  0000000000001314: F90003E8  str         x8,[sp]
  0000000000001318: F94003E8  ldr         x8,[sp]
  000000000000131C: D1002108  sub         x8,x8,#8
  0000000000001320: F940010A  ldr         x10,[x8]
  0000000000001324: 9116E3EB  add         x11,sp,#0x5B8
  0000000000001328: A9402149  ldp         x9,x8,[x10]
  000000000000132C: A9002169  stp         x9,x8,[x11]
  0000000000001330: F9400948  ldr         x8,[x10,#0x10]
  0000000000001334: F9000968  str         x8,[x11,#0x10]
  0000000000001338: 911743EB  add         x11,sp,#0x5D0
  000000000000133C: 9116E3EA  add         x10,sp,#0x5B8
  0000000000001340: A9402149  ldp         x9,x8,[x10]
  0000000000001344: A9002169  stp         x9,x8,[x11]
  0000000000001348: F9400948  ldr         x8,[x10,#0x10]
  000000000000134C: F9000968  str         x8,[x11,#0x10]
  0000000000001350: 911743E1  add         x1,sp,#0x5D0
  0000000000001354: B9400BE0  ldr         w0,[sp,#8]
  0000000000001358: F9400BE8  ldr         x8,[sp,#0x10]
  000000000000135C: D63F0100  blr         x8
  0000000000001360: 140002F1  b           $LN188
$LN61:
  0000000000001364: F94003E8  ldr         x8,[sp]
  0000000000001368: 91002108  add         x8,x8,#8
  000000000000136C: F90003E8  str         x8,[sp]
  0000000000001370: F94003E8  ldr         x8,[sp]
  0000000000001374: D1002108  sub         x8,x8,#8
  0000000000001378: F940010A  ldr         x10,[x8]
  000000000000137C: 911443EB  add         x11,sp,#0x510
  0000000000001380: A9402149  ldp         x9,x8,[x10]
  0000000000001384: A9002169  stp         x9,x8,[x11]
  0000000000001388: F9400948  ldr         x8,[x10,#0x10]
  000000000000138C: F9000968  str         x8,[x11,#0x10]
  0000000000001390: 911E63EB  add         x11,sp,#0x798
  0000000000001394: 911443EA  add         x10,sp,#0x510
  0000000000001398: A9402149  ldp         x9,x8,[x10]
  000000000000139C: A9002169  stp         x9,x8,[x11]
  00000000000013A0: F9400948  ldr         x8,[x10,#0x10]
  00000000000013A4: F9000968  str         x8,[x11,#0x10]
  00000000000013A8: 911E63E1  add         x1,sp,#0x798
  00000000000013AC: B9400BE0  ldr         w0,[sp,#8]
  00000000000013B0: F9400BE8  ldr         x8,[sp,#0x10]
  00000000000013B4: D63F0100  blr         x8
  00000000000013B8: 140002DB  b           $LN188
$LN62:
  00000000000013BC: F94003E8  ldr         x8,[sp]
  00000000000013C0: 91002108  add         x8,x8,#8
  00000000000013C4: F90003E8  str         x8,[sp]
  00000000000013C8: F94003E8  ldr         x8,[sp]
  00000000000013CC: D1002108  sub         x8,x8,#8
  00000000000013D0: F940010A  ldr         x10,[x8]
  00000000000013D4: 9114A3EB  add         x11,sp,#0x528
  00000000000013D8: A9402149  ldp         x9,x8,[x10]
  00000000000013DC: A9002169  stp         x9,x8,[x11]
  00000000000013E0: F9400948  ldr         x8,[x10,#0x10]
  00000000000013E4: F9000968  str         x8,[x11,#0x10]
  00000000000013E8: 9113E3EB  add         x11,sp,#0x4F8
  00000000000013EC: 9114A3EA  add         x10,sp,#0x528
  00000000000013F0: A9402149  ldp         x9,x8,[x10]
  00000000000013F4: A9002169  stp         x9,x8,[x11]
  00000000000013F8: F9400948  ldr         x8,[x10,#0x10]
  00000000000013FC: F9000968  str         x8,[x11,#0x10]
  0000000000001400: 9113E3E1  add         x1,sp,#0x4F8
  0000000000001404: B9400BE0  ldr         w0,[sp,#8]
  0000000000001408: F9400BE8  ldr         x8,[sp,#0x10]
  000000000000140C: D63F0100  blr         x8
  0000000000001410: 140002C5  b           $LN188
$LN63:
  0000000000001414: D2800009  mov         x9,#0
  0000000000001418: F94003E8  ldr         x8,[sp]
  000000000000141C: CB080128  sub         x8,x9,x8
  0000000000001420: 92400908  and         x8,x8,#7
  0000000000001424: 91004109  add         x9,x8,#0x10
  0000000000001428: F94003E8  ldr         x8,[sp]
  000000000000142C: 8B090108  add         x8,x8,x9
  0000000000001430: F90003E8  str         x8,[sp]
  0000000000001434: F94003E8  ldr         x8,[sp]
  0000000000001438: D1004108  sub         x8,x8,#0x10
  000000000000143C: 910723EA  add         x10,sp,#0x1C8
  0000000000001440: A9402109  ldp         x9,x8,[x8]
  0000000000001444: A9002149  stp         x9,x8,[x10]
  0000000000001448: 912D63EA  add         x10,sp,#0xB58
  000000000000144C: 910723E8  add         x8,sp,#0x1C8
  0000000000001450: A9402109  ldp         x9,x8,[x8]
  0000000000001454: A9002149  stp         x9,x8,[x10]
  0000000000001458: 912D63E1  add         x1,sp,#0xB58
  000000000000145C: B9400BE0  ldr         w0,[sp,#8]
  0000000000001460: F9400BE8  ldr         x8,[sp,#0x10]
  0000000000001464: D63F0100  blr         x8
  0000000000001468: 140002AF  b           $LN188
$LN64:
  000000000000146C: D2800009  mov         x9,#0
  0000000000001470: F94003E8  ldr         x8,[sp]
  0000000000001474: CB080128  sub         x8,x9,x8
  0000000000001478: 92400908  and         x8,x8,#7
  000000000000147C: 91004109  add         x9,x8,#0x10
  0000000000001480: F94003E8  ldr         x8,[sp]
  0000000000001484: 8B090108  add         x8,x8,x9
  0000000000001488: F90003E8  str         x8,[sp]
  000000000000148C: F94003E8  ldr         x8,[sp]
  0000000000001490: D1004108  sub         x8,x8,#0x10
  0000000000001494: 9107A3EA  add         x10,sp,#0x1E8
  0000000000001498: A9402109  ldp         x9,x8,[x8]
  000000000000149C: A9002149  stp         x9,x8,[x10]
  00000000000014A0: 912E23EA  add         x10,sp,#0xB88
  00000000000014A4: 9107A3E8  add         x8,sp,#0x1E8
  00000000000014A8: A9402109  ldp         x9,x8,[x8]
  00000000000014AC: A9002149  stp         x9,x8,[x10]
  00000000000014B0: 912E23E1  add         x1,sp,#0xB88
  00000000000014B4: B9400BE0  ldr         w0,[sp,#8]
  00000000000014B8: F9400BE8  ldr         x8,[sp,#0x10]
  00000000000014BC: D63F0100  blr         x8
  00000000000014C0: 14000299  b           $LN188
$LN65:
  00000000000014C4: F94003E8  ldr         x8,[sp]
  00000000000014C8: 91002108  add         x8,x8,#8
  00000000000014CC: F90003E8  str         x8,[sp]
  00000000000014D0: F94003E8  ldr         x8,[sp]
  00000000000014D4: D1002108  sub         x8,x8,#8
  00000000000014D8: F940010A  ldr         x10,[x8]
  00000000000014DC: 9119E3EB  add         x11,sp,#0x678
  00000000000014E0: A9402149  ldp         x9,x8,[x10]
  00000000000014E4: A9002169  stp         x9,x8,[x11]
  00000000000014E8: F9400948  ldr         x8,[x10,#0x10]
  00000000000014EC: F9000968  str         x8,[x11,#0x10]
  00000000000014F0: 913283EB  add         x11,sp,#0xCA0
  00000000000014F4: 9119E3EA  add         x10,sp,#0x678
  00000000000014F8: A9402149  ldp         x9,x8,[x10]
  00000000000014FC: A9002169  stp         x9,x8,[x11]
  0000000000001500: F9400948  ldr         x8,[x10,#0x10]
  0000000000001504: F9000968  str         x8,[x11,#0x10]
  0000000000001508: 913283E1  add         x1,sp,#0xCA0
  000000000000150C: B9400BE0  ldr         w0,[sp,#8]
  0000000000001510: F9400BE8  ldr         x8,[sp,#0x10]
  0000000000001514: D63F0100  blr         x8
  0000000000001518: 14000283  b           $LN188
$LN66:
  000000000000151C: F94003E8  ldr         x8,[sp]
  0000000000001520: 91002108  add         x8,x8,#8
  0000000000001524: F90003E8  str         x8,[sp]
  0000000000001528: F94003E8  ldr         x8,[sp]
  000000000000152C: D1002108  sub         x8,x8,#8
  0000000000001530: F940010A  ldr         x10,[x8]
  0000000000001534: 911863EB  add         x11,sp,#0x618
  0000000000001538: A9402149  ldp         x9,x8,[x10]
  000000000000153C: A9002169  stp         x9,x8,[x11]
  0000000000001540: F9400948  ldr         x8,[x10,#0x10]
  0000000000001544: F9000968  str         x8,[x11,#0x10]
  0000000000001548: 911EC3EB  add         x11,sp,#0x7B0
  000000000000154C: 911863EA  add         x10,sp,#0x618
  0000000000001550: A9402149  ldp         x9,x8,[x10]
  0000000000001554: A9002169  stp         x9,x8,[x11]
  0000000000001558: F9400948  ldr         x8,[x10,#0x10]
  000000000000155C: F9000968  str         x8,[x11,#0x10]
  0000000000001560: 911EC3E1  add         x1,sp,#0x7B0
  0000000000001564: B9400BE0  ldr         w0,[sp,#8]
  0000000000001568: F9400BE8  ldr         x8,[sp,#0x10]
  000000000000156C: D63F0100  blr         x8
  0000000000001570: 1400026D  b           $LN188
$LN67:
  0000000000001574: D2800009  mov         x9,#0
  0000000000001578: F94003E8  ldr         x8,[sp]
  000000000000157C: CB080128  sub         x8,x9,x8
  0000000000001580: 92400908  and         x8,x8,#7
  0000000000001584: 91004109  add         x9,x8,#0x10
  0000000000001588: F94003E8  ldr         x8,[sp]
  000000000000158C: 8B090108  add         x8,x8,x9
  0000000000001590: F90003E8  str         x8,[sp]
  0000000000001594: F94003E8  ldr         x8,[sp]
  0000000000001598: D1004108  sub         x8,x8,#0x10
  000000000000159C: 9107E3EA  add         x10,sp,#0x1F8
  00000000000015A0: A9402109  ldp         x9,x8,[x8]
  00000000000015A4: A9002149  stp         x9,x8,[x10]
  00000000000015A8: 912DE3EA  add         x10,sp,#0xB78
  00000000000015AC: 9107E3E8  add         x8,sp,#0x1F8
  00000000000015B0: A9402109  ldp         x9,x8,[x8]
  00000000000015B4: A9002149  stp         x9,x8,[x10]
  00000000000015B8: 912DE3E1  add         x1,sp,#0xB78
  00000000000015BC: B9400BE0  ldr         w0,[sp,#8]
  00000000000015C0: F9400BE8  ldr         x8,[sp,#0x10]
  00000000000015C4: D63F0100  blr         x8
  00000000000015C8: 14000257  b           $LN188
$LN68:
  00000000000015CC: D2800009  mov         x9,#0
  00000000000015D0: F94003E8  ldr         x8,[sp]
  00000000000015D4: CB080128  sub         x8,x9,x8
  00000000000015D8: 92400908  and         x8,x8,#7
  00000000000015DC: 91004109  add         x9,x8,#0x10
  00000000000015E0: F94003E8  ldr         x8,[sp]
  00000000000015E4: 8B090108  add         x8,x8,x9
  00000000000015E8: F90003E8  str         x8,[sp]
  00000000000015EC: F94003E8  ldr         x8,[sp]
  00000000000015F0: D1004108  sub         x8,x8,#0x10
  00000000000015F4: 910863EA  add         x10,sp,#0x218
  00000000000015F8: A9402109  ldp         x9,x8,[x8]
  00000000000015FC: A9002149  stp         x9,x8,[x10]
  0000000000001600: 912DA3EA  add         x10,sp,#0xB68
  0000000000001604: 910863E8  add         x8,sp,#0x218
  0000000000001608: A9402109  ldp         x9,x8,[x8]
  000000000000160C: A9002149  stp         x9,x8,[x10]
  0000000000001610: 912DA3E1  add         x1,sp,#0xB68
  0000000000001614: B9400BE0  ldr         w0,[sp,#8]
  0000000000001618: F9400BE8  ldr         x8,[sp,#0x10]
  000000000000161C: D63F0100  blr         x8
  0000000000001620: 14000241  b           $LN188
$LN69:
  0000000000001624: F94003E8  ldr         x8,[sp]
  0000000000001628: 91002108  add         x8,x8,#8
  000000000000162C: F90003E8  str         x8,[sp]
  0000000000001630: F94003E8  ldr         x8,[sp]
  0000000000001634: D1002108  sub         x8,x8,#8
  0000000000001638: F940010A  ldr         x10,[x8]
  000000000000163C: 911F23EB  add         x11,sp,#0x7C8
  0000000000001640: A9402149  ldp         x9,x8,[x10]
  0000000000001644: A9002169  stp         x9,x8,[x11]
  0000000000001648: F9400948  ldr         x8,[x10,#0x10]
  000000000000164C: F9000968  str         x8,[x11,#0x10]
  0000000000001650: 912FE3EB  add         x11,sp,#0xBF8
  0000000000001654: 911F23EA  add         x10,sp,#0x7C8
  0000000000001658: A9402149  ldp         x9,x8,[x10]
  000000000000165C: A9002169  stp         x9,x8,[x11]
  0000000000001660: F9400948  ldr         x8,[x10,#0x10]
  0000000000001664: F9000968  str         x8,[x11,#0x10]
  0000000000001668: 912FE3E1  add         x1,sp,#0xBF8
  000000000000166C: B9400BE0  ldr         w0,[sp,#8]
  0000000000001670: F9400BE8  ldr         x8,[sp,#0x10]
  0000000000001674: D63F0100  blr         x8
  0000000000001678: 1400022B  b           $LN188
$LN70:
  000000000000167C: F94003E8  ldr         x8,[sp]
  0000000000001680: 91002108  add         x8,x8,#8
  0000000000001684: F90003E8  str         x8,[sp]
  0000000000001688: F94003E8  ldr         x8,[sp]
  000000000000168C: D1002108  sub         x8,x8,#8
  0000000000001690: F940010A  ldr         x10,[x8]
  0000000000001694: 911F83EB  add         x11,sp,#0x7E0
  0000000000001698: A9402149  ldp         x9,x8,[x10]
  000000000000169C: A9002169  stp         x9,x8,[x11]
  00000000000016A0: F9400948  ldr         x8,[x10,#0x10]
  00000000000016A4: F9000968  str         x8,[x11,#0x10]
  00000000000016A8: 911FE3EB  add         x11,sp,#0x7F8
  00000000000016AC: 911F83EA  add         x10,sp,#0x7E0
  00000000000016B0: A9402149  ldp         x9,x8,[x10]
  00000000000016B4: A9002169  stp         x9,x8,[x11]
  00000000000016B8: F9400948  ldr         x8,[x10,#0x10]
  00000000000016BC: F9000968  str         x8,[x11,#0x10]
  00000000000016C0: 911FE3E1  add         x1,sp,#0x7F8
  00000000000016C4: B9400BE0  ldr         w0,[sp,#8]
  00000000000016C8: F9400BE8  ldr         x8,[sp,#0x10]
  00000000000016CC: D63F0100  blr         x8
  00000000000016D0: 14000215  b           $LN188
$LN71:
  00000000000016D4: F94003E8  ldr         x8,[sp]
  00000000000016D8: 91002108  add         x8,x8,#8
  00000000000016DC: F90003E8  str         x8,[sp]
  00000000000016E0: F94003E8  ldr         x8,[sp]
  00000000000016E4: D1002108  sub         x8,x8,#8
  00000000000016E8: F940010A  ldr         x10,[x8]
  00000000000016EC: 912043EB  add         x11,sp,#0x810
  00000000000016F0: A9402149  ldp         x9,x8,[x10]
  00000000000016F4: A9002169  stp         x9,x8,[x11]
  00000000000016F8: F9400948  ldr         x8,[x10,#0x10]
  00000000000016FC: F9000968  str         x8,[x11,#0x10]
  0000000000001700: 9131C3EB  add         x11,sp,#0xC70
  0000000000001704: 912043EA  add         x10,sp,#0x810
  0000000000001708: A9402149  ldp         x9,x8,[x10]
  000000000000170C: A9002169  stp         x9,x8,[x11]
  0000000000001710: F9400948  ldr         x8,[x10,#0x10]
  0000000000001714: F9000968  str         x8,[x11,#0x10]
  0000000000001718: 9131C3E1  add         x1,sp,#0xC70
  000000000000171C: B9400BE0  ldr         w0,[sp,#8]
  0000000000001720: F9400BE8  ldr         x8,[sp,#0x10]
  0000000000001724: D63F0100  blr         x8
  0000000000001728: 140001FF  b           $LN188
$LN72:
  000000000000172C: F94003E8  ldr         x8,[sp]
  0000000000001730: 91002108  add         x8,x8,#8
  0000000000001734: F90003E8  str         x8,[sp]
  0000000000001738: F94003E8  ldr         x8,[sp]
  000000000000173C: D1002108  sub         x8,x8,#8
  0000000000001740: F940010A  ldr         x10,[x8]
  0000000000001744: 9120A3EB  add         x11,sp,#0x828
  0000000000001748: A9402149  ldp         x9,x8,[x10]
  000000000000174C: A9002169  stp         x9,x8,[x11]
  0000000000001750: F9400948  ldr         x8,[x10,#0x10]
  0000000000001754: F9000968  str         x8,[x11,#0x10]
  0000000000001758: 912F23EB  add         x11,sp,#0xBC8
  000000000000175C: 9120A3EA  add         x10,sp,#0x828
  0000000000001760: A9402149  ldp         x9,x8,[x10]
  0000000000001764: A9002169  stp         x9,x8,[x11]
  0000000000001768: F9400948  ldr         x8,[x10,#0x10]
  000000000000176C: F9000968  str         x8,[x11,#0x10]
  0000000000001770: 912F23E1  add         x1,sp,#0xBC8
  0000000000001774: B9400BE0  ldr         w0,[sp,#8]
  0000000000001778: F9400BE8  ldr         x8,[sp,#0x10]
  000000000000177C: D63F0100  blr         x8
  0000000000001780: 140001E9  b           $LN188
$LN73:
  0000000000001784: F94003E8  ldr         x8,[sp]
  0000000000001788: 91002108  add         x8,x8,#8
  000000000000178C: F90003E8  str         x8,[sp]
  0000000000001790: F94003E8  ldr         x8,[sp]
  0000000000001794: D1002108  sub         x8,x8,#8
  0000000000001798: F940010A  ldr         x10,[x8]
  000000000000179C: 910423EB  add         x11,sp,#0x108
  00000000000017A0: A9402149  ldp         x9,x8,[x10]
  00000000000017A4: A9002169  stp         x9,x8,[x11]
  00000000000017A8: F9400948  ldr         x8,[x10,#0x10]
  00000000000017AC: F9000968  str         x8,[x11,#0x10]
  00000000000017B0: FD408FF0  ldr         d16,[sp,#0x118]
  00000000000017B4: FD00B3F0  str         d16,[sp,#0x160]
  00000000000017B8: FD408BF0  ldr         d16,[sp,#0x110]
  00000000000017BC: FD00AFF0  str         d16,[sp,#0x158]
  00000000000017C0: FD4087F0  ldr         d16,[sp,#0x108]
  00000000000017C4: FD00ABF0  str         d16,[sp,#0x150]
  00000000000017C8: 910543E1  add         x1,sp,#0x150
  00000000000017CC: B9400BE0  ldr         w0,[sp,#8]
  00000000000017D0: F9400BE8  ldr         x8,[sp,#0x10]
  00000000000017D4: D63F0100  blr         x8
  00000000000017D8: 140001D3  b           $LN188
$LN74:
  00000000000017DC: F94003E8  ldr         x8,[sp]
  00000000000017E0: 91002108  add         x8,x8,#8
  00000000000017E4: F90003E8  str         x8,[sp]
  00000000000017E8: F94003E8  ldr         x8,[sp]
  00000000000017EC: D1002108  sub         x8,x8,#8
  00000000000017F0: F940010A  ldr         x10,[x8]
  00000000000017F4: 912103EB  add         x11,sp,#0x840
  00000000000017F8: A9402149  ldp         x9,x8,[x10]
  00000000000017FC: A9002169  stp         x9,x8,[x11]
  0000000000001800: F9400948  ldr         x8,[x10,#0x10]
  0000000000001804: F9000968  str         x8,[x11,#0x10]
  0000000000001808: 912163EB  add         x11,sp,#0x858
  000000000000180C: 912103EA  add         x10,sp,#0x840
  0000000000001810: A9402149  ldp         x9,x8,[x10]
  0000000000001814: A9002169  stp         x9,x8,[x11]
  0000000000001818: F9400948  ldr         x8,[x10,#0x10]
  000000000000181C: F9000968  str         x8,[x11,#0x10]
  0000000000001820: 912163E1  add         x1,sp,#0x858
  0000000000001824: B9400BE0  ldr         w0,[sp,#8]
  0000000000001828: F9400BE8  ldr         x8,[sp,#0x10]
  000000000000182C: D63F0100  blr         x8
  0000000000001830: 140001BD  b           $LN188
$LN75:
  0000000000001834: F94003E8  ldr         x8,[sp]
  0000000000001838: 91002108  add         x8,x8,#8
  000000000000183C: F90003E8  str         x8,[sp]
  0000000000001840: F94003E8  ldr         x8,[sp]
  0000000000001844: D1002108  sub         x8,x8,#8
  0000000000001848: F940010A  ldr         x10,[x8]
  000000000000184C: 9121C3EB  add         x11,sp,#0x870
  0000000000001850: A9402149  ldp         x9,x8,[x10]
  0000000000001854: A9002169  stp         x9,x8,[x11]
  0000000000001858: F9400948  ldr         x8,[x10,#0x10]
  000000000000185C: F9000968  str         x8,[x11,#0x10]
  0000000000001860: 912223EB  add         x11,sp,#0x888
  0000000000001864: 9121C3EA  add         x10,sp,#0x870
  0000000000001868: A9402149  ldp         x9,x8,[x10]
  000000000000186C: A9002169  stp         x9,x8,[x11]
  0000000000001870: F9400948  ldr         x8,[x10,#0x10]
  0000000000001874: F9000968  str         x8,[x11,#0x10]
  0000000000001878: 912223E1  add         x1,sp,#0x888
  000000000000187C: B9400BE0  ldr         w0,[sp,#8]
  0000000000001880: F9400BE8  ldr         x8,[sp,#0x10]
  0000000000001884: D63F0100  blr         x8
  0000000000001888: 140001A7  b           $LN188
$LN76:
  000000000000188C: F94003E8  ldr         x8,[sp]
  0000000000001890: 91002108  add         x8,x8,#8
  0000000000001894: F90003E8  str         x8,[sp]
  0000000000001898: F94003E8  ldr         x8,[sp]
  000000000000189C: D1002108  sub         x8,x8,#8
  00000000000018A0: F940010A  ldr         x10,[x8]
  00000000000018A4: 912283EB  add         x11,sp,#0x8A0
  00000000000018A8: A9402149  ldp         x9,x8,[x10]
  00000000000018AC: A9002169  stp         x9,x8,[x11]
  00000000000018B0: F9400948  ldr         x8,[x10,#0x10]
  00000000000018B4: F9000968  str         x8,[x11,#0x10]
  00000000000018B8: 9122E3EB  add         x11,sp,#0x8B8
  00000000000018BC: 912283EA  add         x10,sp,#0x8A0
  00000000000018C0: A9402149  ldp         x9,x8,[x10]
  00000000000018C4: A9002169  stp         x9,x8,[x11]
  00000000000018C8: F9400948  ldr         x8,[x10,#0x10]
  00000000000018CC: F9000968  str         x8,[x11,#0x10]
  00000000000018D0: 9122E3E1  add         x1,sp,#0x8B8
  00000000000018D4: B9400BE0  ldr         w0,[sp,#8]
  00000000000018D8: F9400BE8  ldr         x8,[sp,#0x10]
  00000000000018DC: D63F0100  blr         x8
  00000000000018E0: 14000191  b           $LN188
$LN77:
  00000000000018E4: F94003E8  ldr         x8,[sp]
  00000000000018E8: 91002108  add         x8,x8,#8
  00000000000018EC: F90003E8  str         x8,[sp]
  00000000000018F0: F94003E8  ldr         x8,[sp]
  00000000000018F4: D1002108  sub         x8,x8,#8
  00000000000018F8: F940010A  ldr         x10,[x8]
  00000000000018FC: 912343EB  add         x11,sp,#0x8D0
  0000000000001900: A9402149  ldp         x9,x8,[x10]
  0000000000001904: A9002169  stp         x9,x8,[x11]
  0000000000001908: F9400948  ldr         x8,[x10,#0x10]
  000000000000190C: F9000968  str         x8,[x11,#0x10]
  0000000000001910: 9123A3EB  add         x11,sp,#0x8E8
  0000000000001914: 912343EA  add         x10,sp,#0x8D0
  0000000000001918: A9402149  ldp         x9,x8,[x10]
  000000000000191C: A9002169  stp         x9,x8,[x11]
  0000000000001920: F9400948  ldr         x8,[x10,#0x10]
  0000000000001924: F9000968  str         x8,[x11,#0x10]
  0000000000001928: 9123A3E1  add         x1,sp,#0x8E8
  000000000000192C: B9400BE0  ldr         w0,[sp,#8]
  0000000000001930: F9400BE8  ldr         x8,[sp,#0x10]
  0000000000001934: D63F0100  blr         x8
  0000000000001938: 1400017B  b           $LN188
$LN78:
  000000000000193C: F94003E8  ldr         x8,[sp]
  0000000000001940: 91002108  add         x8,x8,#8
  0000000000001944: F90003E8  str         x8,[sp]
  0000000000001948: F94003E8  ldr         x8,[sp]
  000000000000194C: D1002108  sub         x8,x8,#8
  0000000000001950: F940010A  ldr         x10,[x8]
  0000000000001954: 912403EB  add         x11,sp,#0x900
  0000000000001958: A9402149  ldp         x9,x8,[x10]
  000000000000195C: A9002169  stp         x9,x8,[x11]
  0000000000001960: F9400948  ldr         x8,[x10,#0x10]
  0000000000001964: F9000968  str         x8,[x11,#0x10]
  0000000000001968: 912463EB  add         x11,sp,#0x918
  000000000000196C: 912403EA  add         x10,sp,#0x900
  0000000000001970: A9402149  ldp         x9,x8,[x10]
  0000000000001974: A9002169  stp         x9,x8,[x11]
  0000000000001978: F9400948  ldr         x8,[x10,#0x10]
  000000000000197C: F9000968  str         x8,[x11,#0x10]
  0000000000001980: 912463E1  add         x1,sp,#0x918
  0000000000001984: B9400BE0  ldr         w0,[sp,#8]
  0000000000001988: F9400BE8  ldr         x8,[sp,#0x10]
  000000000000198C: D63F0100  blr         x8
  0000000000001990: 14000165  b           $LN188
$LN79:
  0000000000001994: D2800009  mov         x9,#0
  0000000000001998: F94003E8  ldr         x8,[sp]
  000000000000199C: CB080128  sub         x8,x9,x8
  00000000000019A0: 92400908  and         x8,x8,#7
  00000000000019A4: 91004109  add         x9,x8,#0x10
  00000000000019A8: F94003E8  ldr         x8,[sp]
  00000000000019AC: 8B090108  add         x8,x8,x9
  00000000000019B0: F90003E8  str         x8,[sp]
  00000000000019B4: F94003E8  ldr         x8,[sp]
  00000000000019B8: D1004108  sub         x8,x8,#0x10
  00000000000019BC: 910963EA  add         x10,sp,#0x258
  00000000000019C0: A9402109  ldp         x9,x8,[x8]
  00000000000019C4: A9002149  stp         x9,x8,[x10]
  00000000000019C8: 910A63EA  add         x10,sp,#0x298
  00000000000019CC: 910963E8  add         x8,sp,#0x258
  00000000000019D0: A9402109  ldp         x9,x8,[x8]
  00000000000019D4: A9002149  stp         x9,x8,[x10]
  00000000000019D8: 910A63E1  add         x1,sp,#0x298
  00000000000019DC: B9400BE0  ldr         w0,[sp,#8]
  00000000000019E0: F9400BE8  ldr         x8,[sp,#0x10]
  00000000000019E4: D63F0100  blr         x8
  00000000000019E8: 1400014F  b           $LN188
$LN80:
  00000000000019EC: D2800009  mov         x9,#0
  00000000000019F0: F94003E8  ldr         x8,[sp]
  00000000000019F4: CB080128  sub         x8,x9,x8
  00000000000019F8: 92400908  and         x8,x8,#7
  00000000000019FC: 91004109  add         x9,x8,#0x10
  0000000000001A00: F94003E8  ldr         x8,[sp]
  0000000000001A04: 8B090108  add         x8,x8,x9
  0000000000001A08: F90003E8  str         x8,[sp]
  0000000000001A0C: F94003E8  ldr         x8,[sp]
  0000000000001A10: D1004108  sub         x8,x8,#0x10
  0000000000001A14: 910AE3EA  add         x10,sp,#0x2B8
  0000000000001A18: A9402109  ldp         x9,x8,[x8]
  0000000000001A1C: A9002149  stp         x9,x8,[x10]
  0000000000001A20: 910DE3EA  add         x10,sp,#0x378
  0000000000001A24: 910AE3E8  add         x8,sp,#0x2B8
  0000000000001A28: A9402109  ldp         x9,x8,[x8]
  0000000000001A2C: A9002149  stp         x9,x8,[x10]
  0000000000001A30: 910DE3E1  add         x1,sp,#0x378
  0000000000001A34: B9400BE0  ldr         w0,[sp,#8]
  0000000000001A38: F9400BE8  ldr         x8,[sp,#0x10]
  0000000000001A3C: D63F0100  blr         x8
  0000000000001A40: 14000139  b           $LN188
$LN81:
  0000000000001A44: F94003E8  ldr         x8,[sp]
  0000000000001A48: 91002108  add         x8,x8,#8
  0000000000001A4C: F90003E8  str         x8,[sp]
  0000000000001A50: F94003E8  ldr         x8,[sp]
  0000000000001A54: D1002108  sub         x8,x8,#8
  0000000000001A58: F940010A  ldr         x10,[x8]
  0000000000001A5C: 9124C3EB  add         x11,sp,#0x930
  0000000000001A60: A9402149  ldp         x9,x8,[x10]
  0000000000001A64: A9002169  stp         x9,x8,[x11]
  0000000000001A68: F9400948  ldr         x8,[x10,#0x10]
  0000000000001A6C: F9000968  str         x8,[x11,#0x10]
  0000000000001A70: 911923EB  add         x11,sp,#0x648
  0000000000001A74: 9124C3EA  add         x10,sp,#0x930
  0000000000001A78: A9402149  ldp         x9,x8,[x10]
  0000000000001A7C: A9002169  stp         x9,x8,[x11]
  0000000000001A80: F9400948  ldr         x8,[x10,#0x10]
  0000000000001A84: F9000968  str         x8,[x11,#0x10]
  0000000000001A88: 911923E1  add         x1,sp,#0x648
  0000000000001A8C: B9400BE0  ldr         w0,[sp,#8]
  0000000000001A90: F9400BE8  ldr         x8,[sp,#0x10]
  0000000000001A94: D63F0100  blr         x8
  0000000000001A98: 14000123  b           $LN188
$LN82:
  0000000000001A9C: F94003E8  ldr         x8,[sp]
  0000000000001AA0: 91002108  add         x8,x8,#8
  0000000000001AA4: F90003E8  str         x8,[sp]
  0000000000001AA8: F94003E8  ldr         x8,[sp]
  0000000000001AAC: D1002108  sub         x8,x8,#8
  0000000000001AB0: F940010A  ldr         x10,[x8]
  0000000000001AB4: 912583EB  add         x11,sp,#0x960
  0000000000001AB8: A9402149  ldp         x9,x8,[x10]
  0000000000001ABC: A9002169  stp         x9,x8,[x11]
  0000000000001AC0: F9400948  ldr         x8,[x10,#0x10]
  0000000000001AC4: F9000968  str         x8,[x11,#0x10]
  0000000000001AC8: 9125E3EB  add         x11,sp,#0x978
  0000000000001ACC: 912583EA  add         x10,sp,#0x960
  0000000000001AD0: A9402149  ldp         x9,x8,[x10]
  0000000000001AD4: A9002169  stp         x9,x8,[x11]
  0000000000001AD8: F9400948  ldr         x8,[x10,#0x10]
  0000000000001ADC: F9000968  str         x8,[x11,#0x10]
  0000000000001AE0: 9125E3E1  add         x1,sp,#0x978
  0000000000001AE4: B9400BE0  ldr         w0,[sp,#8]
  0000000000001AE8: F9400BE8  ldr         x8,[sp,#0x10]
  0000000000001AEC: D63F0100  blr         x8
  0000000000001AF0: 1400010D  b           $LN188
$LN83:
  0000000000001AF4: D2800009  mov         x9,#0
  0000000000001AF8: F94003E8  ldr         x8,[sp]
  0000000000001AFC: CB080128  sub         x8,x9,x8
  0000000000001B00: 92400908  and         x8,x8,#7
  0000000000001B04: 91004109  add         x9,x8,#0x10
  0000000000001B08: F94003E8  ldr         x8,[sp]
  0000000000001B0C: 8B090108  add         x8,x8,x9
  0000000000001B10: F90003E8  str         x8,[sp]
  0000000000001B14: F94003E8  ldr         x8,[sp]
  0000000000001B18: D1004108  sub         x8,x8,#0x10
  0000000000001B1C: 910EE3EA  add         x10,sp,#0x3B8
  0000000000001B20: A9402109  ldp         x9,x8,[x8]
  0000000000001B24: A9002149  stp         x9,x8,[x10]
  0000000000001B28: 910FE3EA  add         x10,sp,#0x3F8
  0000000000001B2C: 910EE3E8  add         x8,sp,#0x3B8
  0000000000001B30: A9402109  ldp         x9,x8,[x8]
  0000000000001B34: A9002149  stp         x9,x8,[x10]
  0000000000001B38: 910FE3E1  add         x1,sp,#0x3F8
  0000000000001B3C: B9400BE0  ldr         w0,[sp,#8]
  0000000000001B40: F9400BE8  ldr         x8,[sp,#0x10]
  0000000000001B44: D63F0100  blr         x8
  0000000000001B48: 140000F7  b           $LN188
$LN84:
  0000000000001B4C: D2800009  mov         x9,#0
  0000000000001B50: F94003E8  ldr         x8,[sp]
  0000000000001B54: CB080128  sub         x8,x9,x8
  0000000000001B58: 92400908  and         x8,x8,#7
  0000000000001B5C: 91004109  add         x9,x8,#0x10
  0000000000001B60: F94003E8  ldr         x8,[sp]
  0000000000001B64: 8B090108  add         x8,x8,x9
  0000000000001B68: F90003E8  str         x8,[sp]
  0000000000001B6C: F94003E8  ldr         x8,[sp]
  0000000000001B70: D1004108  sub         x8,x8,#0x10
  0000000000001B74: 910663EA  add         x10,sp,#0x198
  0000000000001B78: A9402109  ldp         x9,x8,[x8]
  0000000000001B7C: A9002149  stp         x9,x8,[x10]
  0000000000001B80: 910763EA  add         x10,sp,#0x1D8
  0000000000001B84: 910663E8  add         x8,sp,#0x198
  0000000000001B88: A9402109  ldp         x9,x8,[x8]
  0000000000001B8C: A9002149  stp         x9,x8,[x10]
  0000000000001B90: 910763E1  add         x1,sp,#0x1D8
  0000000000001B94: B9400BE0  ldr         w0,[sp,#8]
  0000000000001B98: F9400BE8  ldr         x8,[sp,#0x10]
  0000000000001B9C: D63F0100  blr         x8
  0000000000001BA0: 140000E1  b           $LN188
$LN85:
  0000000000001BA4: F94003E8  ldr         x8,[sp]
  0000000000001BA8: 91002108  add         x8,x8,#8
  0000000000001BAC: F90003E8  str         x8,[sp]
  0000000000001BB0: F94003E8  ldr         x8,[sp]
  0000000000001BB4: D1002108  sub         x8,x8,#8
  0000000000001BB8: F940010A  ldr         x10,[x8]
  0000000000001BBC: 912643EB  add         x11,sp,#0x990
  0000000000001BC0: A9402149  ldp         x9,x8,[x10]
  0000000000001BC4: A9002169  stp         x9,x8,[x11]
  0000000000001BC8: F9400948  ldr         x8,[x10,#0x10]
  0000000000001BCC: F9000968  str         x8,[x11,#0x10]
  0000000000001BD0: 9126A3EB  add         x11,sp,#0x9A8
  0000000000001BD4: 912643EA  add         x10,sp,#0x990
  0000000000001BD8: A9402149  ldp         x9,x8,[x10]
  0000000000001BDC: A9002169  stp         x9,x8,[x11]
  0000000000001BE0: F9400948  ldr         x8,[x10,#0x10]
  0000000000001BE4: F9000968  str         x8,[x11,#0x10]
  0000000000001BE8: 9126A3E1  add         x1,sp,#0x9A8
  0000000000001BEC: B9400BE0  ldr         w0,[sp,#8]
  0000000000001BF0: F9400BE8  ldr         x8,[sp,#0x10]
  0000000000001BF4: D63F0100  blr         x8
  0000000000001BF8: 140000CB  b           $LN188
$LN86:
  0000000000001BFC: F94003E8  ldr         x8,[sp]
  0000000000001C00: 91002108  add         x8,x8,#8
  0000000000001C04: F90003E8  str         x8,[sp]
  0000000000001C08: F94003E8  ldr         x8,[sp]
  0000000000001C0C: D1002108  sub         x8,x8,#8
  0000000000001C10: F940010A  ldr         x10,[x8]
  0000000000001C14: 912703EB  add         x11,sp,#0x9C0
  0000000000001C18: A9402149  ldp         x9,x8,[x10]
  0000000000001C1C: A9002169  stp         x9,x8,[x11]
  0000000000001C20: F9400948  ldr         x8,[x10,#0x10]
  0000000000001C24: F9000968  str         x8,[x11,#0x10]
  0000000000001C28: 912763EB  add         x11,sp,#0x9D8
  0000000000001C2C: 912703EA  add         x10,sp,#0x9C0
  0000000000001C30: A9402149  ldp         x9,x8,[x10]
  0000000000001C34: A9002169  stp         x9,x8,[x11]
  0000000000001C38: F9400948  ldr         x8,[x10,#0x10]
  0000000000001C3C: F9000968  str         x8,[x11,#0x10]
  0000000000001C40: 912763E1  add         x1,sp,#0x9D8
  0000000000001C44: B9400BE0  ldr         w0,[sp,#8]
  0000000000001C48: F9400BE8  ldr         x8,[sp,#0x10]
  0000000000001C4C: D63F0100  blr         x8
  0000000000001C50: 140000B5  b           $LN188
$LN87:
  0000000000001C54: F94003E8  ldr         x8,[sp]
  0000000000001C58: 91002108  add         x8,x8,#8
  0000000000001C5C: F90003E8  str         x8,[sp]
  0000000000001C60: F94003E8  ldr         x8,[sp]
  0000000000001C64: D1002108  sub         x8,x8,#8
  0000000000001C68: F940010A  ldr         x10,[x8]
  0000000000001C6C: 9127C3EB  add         x11,sp,#0x9F0
  0000000000001C70: A9402149  ldp         x9,x8,[x10]
  0000000000001C74: A9002169  stp         x9,x8,[x11]
  0000000000001C78: F9400948  ldr         x8,[x10,#0x10]
  0000000000001C7C: F9000968  str         x8,[x11,#0x10]
  0000000000001C80: 912823EB  add         x11,sp,#0xA08
  0000000000001C84: 9127C3EA  add         x10,sp,#0x9F0
  0000000000001C88: A9402149  ldp         x9,x8,[x10]
  0000000000001C8C: A9002169  stp         x9,x8,[x11]
  0000000000001C90: F9400948  ldr         x8,[x10,#0x10]
  0000000000001C94: F9000968  str         x8,[x11,#0x10]
  0000000000001C98: 912823E1  add         x1,sp,#0xA08
  0000000000001C9C: B9400BE0  ldr         w0,[sp,#8]
  0000000000001CA0: F9400BE8  ldr         x8,[sp,#0x10]
  0000000000001CA4: D63F0100  blr         x8
  0000000000001CA8: 1400009F  b           $LN188
$LN88:
  0000000000001CAC: F94003E8  ldr         x8,[sp]
  0000000000001CB0: 91002108  add         x8,x8,#8
  0000000000001CB4: F90003E8  str         x8,[sp]
  0000000000001CB8: F94003E8  ldr         x8,[sp]
  0000000000001CBC: D1002108  sub         x8,x8,#8
  0000000000001CC0: F940010A  ldr         x10,[x8]
  0000000000001CC4: 912883EB  add         x11,sp,#0xA20
  0000000000001CC8: A9402149  ldp         x9,x8,[x10]
  0000000000001CCC: A9002169  stp         x9,x8,[x11]
  0000000000001CD0: F9400948  ldr         x8,[x10,#0x10]
  0000000000001CD4: F9000968  str         x8,[x11,#0x10]
  0000000000001CD8: 911563EB  add         x11,sp,#0x558
  0000000000001CDC: 912883EA  add         x10,sp,#0xA20
  0000000000001CE0: A9402149  ldp         x9,x8,[x10]
  0000000000001CE4: A9002169  stp         x9,x8,[x11]
  0000000000001CE8: F9400948  ldr         x8,[x10,#0x10]
  0000000000001CEC: F9000968  str         x8,[x11,#0x10]
  0000000000001CF0: 911563E1  add         x1,sp,#0x558
  0000000000001CF4: B9400BE0  ldr         w0,[sp,#8]
  0000000000001CF8: F9400BE8  ldr         x8,[sp,#0x10]
  0000000000001CFC: D63F0100  blr         x8
  0000000000001D00: 14000089  b           $LN188
$LN89:
  0000000000001D04: F94003E8  ldr         x8,[sp]
  0000000000001D08: 91002108  add         x8,x8,#8
  0000000000001D0C: F90003E8  str         x8,[sp]
  0000000000001D10: F94003E8  ldr         x8,[sp]
  0000000000001D14: D1002108  sub         x8,x8,#8
  0000000000001D18: F940010A  ldr         x10,[x8]
  0000000000001D1C: 9128E3EB  add         x11,sp,#0xA38
  0000000000001D20: A9402149  ldp         x9,x8,[x10]
  0000000000001D24: A9002169  stp         x9,x8,[x11]
  0000000000001D28: F9400948  ldr         x8,[x10,#0x10]
  0000000000001D2C: F9000968  str         x8,[x11,#0x10]
  0000000000001D30: 912943EB  add         x11,sp,#0xA50
  0000000000001D34: 9128E3EA  add         x10,sp,#0xA38
  0000000000001D38: A9402149  ldp         x9,x8,[x10]
  0000000000001D3C: A9002169  stp         x9,x8,[x11]
  0000000000001D40: F9400948  ldr         x8,[x10,#0x10]
  0000000000001D44: F9000968  str         x8,[x11,#0x10]
  0000000000001D48: 912943E1  add         x1,sp,#0xA50
  0000000000001D4C: B9400BE0  ldr         w0,[sp,#8]
  0000000000001D50: F9400BE8  ldr         x8,[sp,#0x10]
  0000000000001D54: D63F0100  blr         x8
  0000000000001D58: 14000073  b           $LN188
$LN90:
  0000000000001D5C: F94003E8  ldr         x8,[sp]
  0000000000001D60: 91002108  add         x8,x8,#8
  0000000000001D64: F90003E8  str         x8,[sp]
  0000000000001D68: F94003E8  ldr         x8,[sp]
  0000000000001D6C: D1002108  sub         x8,x8,#8
  0000000000001D70: F940010A  ldr         x10,[x8]
  0000000000001D74: 9129A3EB  add         x11,sp,#0xA68
  0000000000001D78: A9402149  ldp         x9,x8,[x10]
  0000000000001D7C: A9002169  stp         x9,x8,[x11]
  0000000000001D80: F9400948  ldr         x8,[x10,#0x10]
  0000000000001D84: F9000968  str         x8,[x11,#0x10]
  0000000000001D88: 912A03EB  add         x11,sp,#0xA80
  0000000000001D8C: 9129A3EA  add         x10,sp,#0xA68
  0000000000001D90: A9402149  ldp         x9,x8,[x10]
  0000000000001D94: A9002169  stp         x9,x8,[x11]
  0000000000001D98: F9400948  ldr         x8,[x10,#0x10]
  0000000000001D9C: F9000968  str         x8,[x11,#0x10]
  0000000000001DA0: 912A03E1  add         x1,sp,#0xA80
  0000000000001DA4: B9400BE0  ldr         w0,[sp,#8]
  0000000000001DA8: F9400BE8  ldr         x8,[sp,#0x10]
  0000000000001DAC: D63F0100  blr         x8
  0000000000001DB0: 1400005D  b           $LN188
$LN91:
  0000000000001DB4: F94003E8  ldr         x8,[sp]
  0000000000001DB8: 91002108  add         x8,x8,#8
  0000000000001DBC: F90003E8  str         x8,[sp]
  0000000000001DC0: F94003E8  ldr         x8,[sp]
  0000000000001DC4: D1002108  sub         x8,x8,#8
  0000000000001DC8: F940010A  ldr         x10,[x8]
  0000000000001DCC: 911143EB  add         x11,sp,#0x450
  0000000000001DD0: A9402149  ldp         x9,x8,[x10]
  0000000000001DD4: A9002169  stp         x9,x8,[x11]
  0000000000001DD8: F9400948  ldr         x8,[x10,#0x10]
  0000000000001DDC: F9000968  str         x8,[x11,#0x10]
  0000000000001DE0: 9111A3EB  add         x11,sp,#0x468
  0000000000001DE4: 911143EA  add         x10,sp,#0x450
  0000000000001DE8: A9402149  ldp         x9,x8,[x10]
  0000000000001DEC: A9002169  stp         x9,x8,[x11]
  0000000000001DF0: F9400948  ldr         x8,[x10,#0x10]
  0000000000001DF4: F9000968  str         x8,[x11,#0x10]
  0000000000001DF8: 9111A3E1  add         x1,sp,#0x468
  0000000000001DFC: B9400BE0  ldr         w0,[sp,#8]
  0000000000001E00: F9400BE8  ldr         x8,[sp,#0x10]
  0000000000001E04: D63F0100  blr         x8
  0000000000001E08: 14000047  b           $LN188
$LN92:
  0000000000001E0C: F94003E8  ldr         x8,[sp]
  0000000000001E10: 91002108  add         x8,x8,#8
  0000000000001E14: F90003E8  str         x8,[sp]
  0000000000001E18: F94003E8  ldr         x8,[sp]
  0000000000001E1C: D1002108  sub         x8,x8,#8
  0000000000001E20: F940010A  ldr         x10,[x8]
  0000000000001E24: 911203EB  add         x11,sp,#0x480
  0000000000001E28: A9402149  ldp         x9,x8,[x10]
  0000000000001E2C: A9002169  stp         x9,x8,[x11]
  0000000000001E30: F9400948  ldr         x8,[x10,#0x10]
  0000000000001E34: F9000968  str         x8,[x11,#0x10]
  0000000000001E38: 911263EB  add         x11,sp,#0x498
  0000000000001E3C: 911203EA  add         x10,sp,#0x480
  0000000000001E40: A9402149  ldp         x9,x8,[x10]
  0000000000001E44: A9002169  stp         x9,x8,[x11]
  0000000000001E48: F9400948  ldr         x8,[x10,#0x10]
  0000000000001E4C: F9000968  str         x8,[x11,#0x10]
  0000000000001E50: 911263E1  add         x1,sp,#0x498
  0000000000001E54: B9400BE0  ldr         w0,[sp,#8]
  0000000000001E58: F9400BE8  ldr         x8,[sp,#0x10]
  0000000000001E5C: D63F0100  blr         x8
  0000000000001E60: 14000031  b           $LN188
$LN93:
  0000000000001E64: F94003E8  ldr         x8,[sp]
  0000000000001E68: 91002108  add         x8,x8,#8
  0000000000001E6C: F90003E8  str         x8,[sp]
  0000000000001E70: F94003E8  ldr         x8,[sp]
  0000000000001E74: D1002108  sub         x8,x8,#8
  0000000000001E78: F940010A  ldr         x10,[x8]
  0000000000001E7C: 9112C3EB  add         x11,sp,#0x4B0
  0000000000001E80: A9402149  ldp         x9,x8,[x10]
  0000000000001E84: A9002169  stp         x9,x8,[x11]
  0000000000001E88: F9400948  ldr         x8,[x10,#0x10]
  0000000000001E8C: F9000968  str         x8,[x11,#0x10]
  0000000000001E90: 911323EB  add         x11,sp,#0x4C8
  0000000000001E94: 9112C3EA  add         x10,sp,#0x4B0
  0000000000001E98: A9402149  ldp         x9,x8,[x10]
  0000000000001E9C: A9002169  stp         x9,x8,[x11]
  0000000000001EA0: F9400948  ldr         x8,[x10,#0x10]
  0000000000001EA4: F9000968  str         x8,[x11,#0x10]
  0000000000001EA8: 911323E1  add         x1,sp,#0x4C8
  0000000000001EAC: B9400BE0  ldr         w0,[sp,#8]
  0000000000001EB0: F9400BE8  ldr         x8,[sp,#0x10]
  0000000000001EB4: D63F0100  blr         x8
  0000000000001EB8: 1400001B  b           $LN188
$LN94:
  0000000000001EBC: F94003E8  ldr         x8,[sp]
  0000000000001EC0: 91002108  add         x8,x8,#8
  0000000000001EC4: F90003E8  str         x8,[sp]
  0000000000001EC8: F94003E8  ldr         x8,[sp]
  0000000000001ECC: D1002108  sub         x8,x8,#8
  0000000000001ED0: F940010A  ldr         x10,[x8]
  0000000000001ED4: 9117A3EB  add         x11,sp,#0x5E8
  0000000000001ED8: A9402149  ldp         x9,x8,[x10]
  0000000000001EDC: A9002169  stp         x9,x8,[x11]
  0000000000001EE0: F9400948  ldr         x8,[x10,#0x10]
  0000000000001EE4: F9000968  str         x8,[x11,#0x10]
  0000000000001EE8: 912523EB  add         x11,sp,#0x948
  0000000000001EEC: 9117A3EA  add         x10,sp,#0x5E8
  0000000000001EF0: A9402149  ldp         x9,x8,[x10]
  0000000000001EF4: A9002169  stp         x9,x8,[x11]
  0000000000001EF8: F9400948  ldr         x8,[x10,#0x10]
  0000000000001EFC: F9000968  str         x8,[x11,#0x10]
  0000000000001F00: 912523E1  add         x1,sp,#0x948
  0000000000001F04: B9400BE0  ldr         w0,[sp,#8]
  0000000000001F08: F9400BE8  ldr         x8,[sp,#0x10]
  0000000000001F0C: D63F0100  blr         x8
  0000000000001F10: 14000005  b           $LN188
$LN95:
  0000000000001F14: 12800000  mov         w0,#-1
  0000000000001F18: 90000008  adrp        x8,__imp_exit
  0000000000001F1C: F9400108  ldr         x8,[x8,__imp_exit]
  0000000000001F20: D63F0100  blr         x8
$LN188:
  0000000000001F24: 17FFF848  b           $LN2
$LN3:
  0000000000001F28: D2800008  mov         x8,#0
  0000000000001F2C: F90003E8  str         x8,[sp]
  0000000000001F30: 9132C3FF  add         sp,sp,#0xCB0
  0000000000001F34: 94000000  bl          __security_pop_cookie
  0000000000001F38: A8C47BFD  ldp         fp,lr,[sp],#0x40
  0000000000001F3C: D65F03C0  ret
$LN100:
  0000000000001F40: FFFFFC38
$LN101:
  0000000000001F44: FFFFFC49
$LN102:
  0000000000001F48: FFFFFC5A
$LN103:
  0000000000001F4C: FFFFFC6B
$LN104:
  0000000000001F50: FFFFFC7C
$LN105:
  0000000000001F54: FFFFFC92
$LN106:
  0000000000001F58: FFFFFCA6
$LN107:
  0000000000001F5C: FFFFFCBA
$LN108:
  0000000000001F60: FFFFFCD0
$LN109:
  0000000000001F64: FFFFFCE6
$LN110:
  0000000000001F68: FFFFFCFC
$LN111:
  0000000000001F6C: FFFFFD12
$LN112:
  0000000000001F70: FFFFFD28
$LN113:
  0000000000001F74: FFFFFD3E
$LN114:
  0000000000001F78: FFFFFD54
$LN115:
  0000000000001F7C: FFFFFD6A
$LN116:
  0000000000001F80: FFFFFD80
$LN117:
  0000000000001F84: FFFFFD96
$LN118:
  0000000000001F88: FFFFFDAC
$LN119:
  0000000000001F8C: FFFFFDC2
$LN120:
  0000000000001F90: FFFFFDD8
$LN121:
  0000000000001F94: FFFFFDEE
$LN122:
  0000000000001F98: FFFFFE04
$LN123:
  0000000000001F9C: FFFFFE1A
$LN124:
  0000000000001FA0: FFFFFE30
$LN125:
  0000000000001FA4: FFFFFE4A
$LN126:
  0000000000001FA8: FFFFFE64
$LN127:
  0000000000001FAC: FFFFFE7A
$LN128:
  0000000000001FB0: FFFFFE90
$LN129:
  0000000000001FB4: FFFFFEAA
$LN130:
  0000000000001FB8: FFFFFEC4
$LN131:
  0000000000001FBC: FFFFFEDA
$LN132:
  0000000000001FC0: FFFFFEF0
$LN133:
  0000000000001FC4: FFFFFF06
$LN134:
  0000000000001FC8: FFFFFF1C
$LN135:
  0000000000001FCC: FFFFFF32
$LN136:
  0000000000001FD0: FFFFFF48
$LN137:
  0000000000001FD4: FFFFFF5E
$LN138:
  0000000000001FD8: FFFFFF74
$LN139:
  0000000000001FDC: FFFFFF8A
$LN140:
  0000000000001FE0: FFFFFFA0
$LN141:
  0000000000001FE4: FFFFFFBA
$LN142:
  0000000000001FE8: FFFFFFD4
$LN143:
  0000000000001FEC: FFFFFFEA
$LN144:
  0000000000001FF0: 00000000
$LN145:
  0000000000001FF4: 0000001A
$LN146:
  0000000000001FF8: 00000034
$LN147:
  0000000000001FFC: 0000004A
$LN148:
  0000000000002000: 00000060
$LN149:
  0000000000002004: 00000076
$LN150:
  0000000000002008: 0000008C
$LN151:
  000000000000200C: 000000A2
$LN152:
  0000000000002010: 000000B8
$LN153:
  0000000000002014: 000000CE
$LN154:
  0000000000002018: 000000E4
$LN155:
  000000000000201C: 000000FA
$LN156:
  0000000000002020: 00000110
$LN157:
  0000000000002024: 00000126
$LN158:
  0000000000002028: 0000013C
$LN159:
  000000000000202C: 00000152
$LN160:
  0000000000002030: 00000168
$LN161:
  0000000000002034: 0000017E
$LN162:
  0000000000002038: 00000194
$LN163:
  000000000000203C: 000001AA
$LN164:
  0000000000002040: 000001C0
$LN165:
  0000000000002044: 000001D6
$LN166:
  0000000000002048: 000001EC
$LN167:
  000000000000204C: 00000202
$LN168:
  0000000000002050: 00000218
$LN169:
  0000000000002054: 0000022E
$LN170:
  0000000000002058: 00000244
$LN171:
  000000000000205C: 0000025A
$LN172:
  0000000000002060: 00000270
$LN173:
  0000000000002064: 00000286
$LN174:
  0000000000002068: 0000029C
$LN175:
  000000000000206C: 000002B2
$LN176:
  0000000000002070: 000002C8
$LN177:
  0000000000002074: 000002DE
$LN178:
  0000000000002078: 000002F4
$LN179:
  000000000000207C: 0000030A
$LN180:
  0000000000002080: 00000320
$LN181:
  0000000000002084: 00000336
$LN182:
  0000000000002088: 0000034C
$LN183:
  000000000000208C: 00000362
$LN184:
  0000000000002090: 00000378
$LN185:
  0000000000002094: 0000038E
$LN186:
  0000000000002098: 000003A4
$LN187:
  000000000000209C: 000003BA

  Summary

          38 .chks64
        2A40 .debug$S
        2A2C .debug$T
          3F .drectve
           8 .pdata
        20A0 .text$mn
          1C .xdata
