
Dump of file hfa.obj

File Type: COFF OBJECT

func_S_F:
  0000000000000000: D10043FF  sub         sp,sp,#0x10
  0000000000000004: B90007E0  str         w0,[sp,#4]
  0000000000000008: BD0003E0  str         s0,[sp]
  000000000000000C: BD4003E0  ldr         s0,[sp]
  0000000000000010: 910043FF  add         sp,sp,#0x10
  0000000000000014: D65F03C0  ret
variadic_func_S_F:
  0000000000000018: D10103FF  sub         sp,sp,#0x40
  000000000000001C: A9008BE1  stp         x1,x2,[sp,#8]
  0000000000000020: A90193E3  stp         x3,x4,[sp,#0x18]
  0000000000000024: A9029BE5  stp         x5,x6,[sp,#0x28]
  0000000000000028: F9001FE7  str         x7,[sp,#0x38]
  000000000000002C: D10083FF  sub         sp,sp,#0x20
  0000000000000030: B9000BE0  str         w0,[sp,#8]
  0000000000000034: 9100A3E8  add         x8,sp,#0x28
  0000000000000038: F9000BE8  str         x8,[sp,#0x10]
  000000000000003C: D2800009  mov         x9,#0
  0000000000000040: F9400BE8  ldr         x8,[sp,#0x10]
  0000000000000044: CB080128  sub         x8,x9,x8
  0000000000000048: 92400508  and         x8,x8,#3
  000000000000004C: 91002109  add         x9,x8,#8
  0000000000000050: F9400BE8  ldr         x8,[sp,#0x10]
  0000000000000054: 8B090108  add         x8,x8,x9
  0000000000000058: F9000BE8  str         x8,[sp,#0x10]
  000000000000005C: F9400BE8  ldr         x8,[sp,#0x10]
  0000000000000060: D1002108  sub         x8,x8,#8
  0000000000000064: B9400108  ldr         w8,[x8]
  0000000000000068: B90003E8  str         w8,[sp]
  000000000000006C: BD4003F0  ldr         s16,[sp]
  0000000000000070: BD0007F0  str         s16,[sp,#4]
  0000000000000074: D2800008  mov         x8,#0
  0000000000000078: F9000BE8  str         x8,[sp,#0x10]
  000000000000007C: BD4007E0  ldr         s0,[sp,#4]
  0000000000000080: 910083FF  add         sp,sp,#0x20
  0000000000000084: 910103FF  add         sp,sp,#0x40
  0000000000000088: D65F03C0  ret
  000000000000008C: 00000000
call_S_F:
  0000000000000090: A9BE7BFD  stp         fp,lr,[sp,#-0x20]!
  0000000000000094: 910003FD  mov         fp,sp
  0000000000000098: 1C000110  ldr         s16,$LN3
  000000000000009C: BD0013F0  str         s16,[sp,#0x10]
  00000000000000A0: BD4013E0  ldr         s0,[sp,#0x10]
  00000000000000A4: 180000C0  ldr         w0,$LN4
  00000000000000A8: 94000000  bl          func_S_F
  00000000000000AC: A8C27BFD  ldp         fp,lr,[sp],#0x20
  00000000000000B0: D65F03C0  ret
  00000000000000B4: D503201F  nop
$LN3:
  00000000000000B8: 449A522C
$LN4:
  00000000000000BC: CAFE0123  eon         x3,x9,lr,ror #0
call_variadic_S_F:
  00000000000000C0: A9BE7BFD  stp         fp,lr,[sp,#-0x20]!
  00000000000000C4: 910003FD  mov         fp,sp
  00000000000000C8: 1C000110  ldr         s16,$LN3
  00000000000000CC: BD0013F0  str         s16,[sp,#0x10]
  00000000000000D0: B94013E1  ldr         w1,[sp,#0x10]
  00000000000000D4: 180000C0  ldr         w0,$LN4
  00000000000000D8: 94000000  bl          variadic_func_S_F
  00000000000000DC: A8C27BFD  ldp         fp,lr,[sp],#0x20
  00000000000000E0: D65F03C0  ret
  00000000000000E4: D503201F  nop
$LN3:
  00000000000000E8: 449A522C
$LN4:
  00000000000000EC: CAFE0123  eon         x3,x9,lr,ror #0
func_S_FF:
  00000000000000F0: D10043FF  sub         sp,sp,#0x10
  00000000000000F4: B90003E0  str         w0,[sp]
  00000000000000F8: BD000BE0  str         s0,[sp,#8]
  00000000000000FC: BD000FE1  str         s1,[sp,#0xC]
  0000000000000100: BD400BF1  ldr         s17,[sp,#8]
  0000000000000104: BD400FF0  ldr         s16,[sp,#0xC]
  0000000000000108: 1E302A20  fadd        s0,s17,s16
  000000000000010C: 910043FF  add         sp,sp,#0x10
  0000000000000110: D65F03C0  ret
  0000000000000114: 00000000
variadic_func_S_FF:
  0000000000000118: D10103FF  sub         sp,sp,#0x40
  000000000000011C: A9008BE1  stp         x1,x2,[sp,#8]
  0000000000000120: A90193E3  stp         x3,x4,[sp,#0x18]
  0000000000000124: A9029BE5  stp         x5,x6,[sp,#0x28]
  0000000000000128: F9001FE7  str         x7,[sp,#0x38]
  000000000000012C: D10083FF  sub         sp,sp,#0x20
  0000000000000130: B90003E0  str         w0,[sp]
  0000000000000134: 9100A3E8  add         x8,sp,#0x28
  0000000000000138: F90007E8  str         x8,[sp,#8]
  000000000000013C: D2800009  mov         x9,#0
  0000000000000140: F94007E8  ldr         x8,[sp,#8]
  0000000000000144: CB080128  sub         x8,x9,x8
  0000000000000148: 92400508  and         x8,x8,#3
  000000000000014C: 91002109  add         x9,x8,#8
  0000000000000150: F94007E8  ldr         x8,[sp,#8]
  0000000000000154: 8B090108  add         x8,x8,x9
  0000000000000158: F90007E8  str         x8,[sp,#8]
  000000000000015C: F94007E8  ldr         x8,[sp,#8]
  0000000000000160: D1002108  sub         x8,x8,#8
  0000000000000164: F9400108  ldr         x8,[x8]
  0000000000000168: F9000FE8  str         x8,[sp,#0x18]
  000000000000016C: BD401FF0  ldr         s16,[sp,#0x1C]
  0000000000000170: BD0017F0  str         s16,[sp,#0x14]
  0000000000000174: BD401BF0  ldr         s16,[sp,#0x18]
  0000000000000178: BD0013F0  str         s16,[sp,#0x10]
  000000000000017C: D2800008  mov         x8,#0
  0000000000000180: F90007E8  str         x8,[sp,#8]
  0000000000000184: BD4013F1  ldr         s17,[sp,#0x10]
  0000000000000188: BD4017F0  ldr         s16,[sp,#0x14]
  000000000000018C: 1E302A20  fadd        s0,s17,s16
  0000000000000190: 910083FF  add         sp,sp,#0x20
  0000000000000194: 910103FF  add         sp,sp,#0x40
  0000000000000198: D65F03C0  ret
  000000000000019C: 00000000
call_S_FF:
  00000000000001A0: A9BE7BFD  stp         fp,lr,[sp,#-0x20]!
  00000000000001A4: 910003FD  mov         fp,sp
  00000000000001A8: 1C000150  ldr         s16,$LN3
  00000000000001AC: BD0013F0  str         s16,[sp,#0x10]
  00000000000001B0: 1C000130  ldr         s16,$LN4
  00000000000001B4: BD0017F0  str         s16,[sp,#0x14]
  00000000000001B8: BD4017E1  ldr         s1,[sp,#0x14]
  00000000000001BC: BD4013E0  ldr         s0,[sp,#0x10]
  00000000000001C0: 180000C0  ldr         w0,$LN5
  00000000000001C4: 94000000  bl          func_S_FF
  00000000000001C8: A8C27BFD  ldp         fp,lr,[sp],#0x20
  00000000000001CC: D65F03C0  ret
$LN3:
  00000000000001D0: 449A522C
$LN4:
  00000000000001D4: 43700000
$LN5:
  00000000000001D8: CAFE1234  eon         x20,xip1,lr,ror #4
  00000000000001DC: 00000000
call_variadic_S_FF:
  00000000000001E0: A9BE7BFD  stp         fp,lr,[sp,#-0x20]!
  00000000000001E4: 910003FD  mov         fp,sp
  00000000000001E8: 1C000150  ldr         s16,$LN3
  00000000000001EC: BD0013F0  str         s16,[sp,#0x10]
  00000000000001F0: 1C000130  ldr         s16,$LN4
  00000000000001F4: BD0017F0  str         s16,[sp,#0x14]
  00000000000001F8: F9400BE1  ldr         x1,[sp,#0x10]
  00000000000001FC: 180000E0  ldr         w0,$LN5
  0000000000000200: 94000000  bl          variadic_func_S_FF
  0000000000000204: A8C27BFD  ldp         fp,lr,[sp],#0x20
  0000000000000208: D65F03C0  ret
  000000000000020C: D503201F  nop
$LN3:
  0000000000000210: 449A522C
$LN4:
  0000000000000214: 43700000
$LN5:
  0000000000000218: CAFE1234  eon         x20,xip1,lr,ror #4
  000000000000021C: 00000000
func_S_FFF:
  0000000000000220: D10083FF  sub         sp,sp,#0x20
  0000000000000224: B90003E0  str         w0,[sp]
  0000000000000228: BD000BE0  str         s0,[sp,#8]
  000000000000022C: BD000FE1  str         s1,[sp,#0xC]
  0000000000000230: BD0013E2  str         s2,[sp,#0x10]
  0000000000000234: BD400BF1  ldr         s17,[sp,#8]
  0000000000000238: BD400FF0  ldr         s16,[sp,#0xC]
  000000000000023C: 1E302A31  fadd        s17,s17,s16
  0000000000000240: BD4013F0  ldr         s16,[sp,#0x10]
  0000000000000244: 1E302A20  fadd        s0,s17,s16
  0000000000000248: 910083FF  add         sp,sp,#0x20
  000000000000024C: D65F03C0  ret
variadic_func_S_FFF:
  0000000000000250: D10103FF  sub         sp,sp,#0x40
  0000000000000254: A9008BE1  stp         x1,x2,[sp,#8]
  0000000000000258: A90193E3  stp         x3,x4,[sp,#0x18]
  000000000000025C: A9029BE5  stp         x5,x6,[sp,#0x28]
  0000000000000260: F9001FE7  str         x7,[sp,#0x38]
  0000000000000264: D100C3FF  sub         sp,sp,#0x30
  0000000000000268: B90003E0  str         w0,[sp]
  000000000000026C: 9100E3E8  add         x8,sp,#0x38
  0000000000000270: F90007E8  str         x8,[sp,#8]
  0000000000000274: D2800009  mov         x9,#0
  0000000000000278: F94007E8  ldr         x8,[sp,#8]
  000000000000027C: CB080128  sub         x8,x9,x8
  0000000000000280: 92400508  and         x8,x8,#3
  0000000000000284: 91004109  add         x9,x8,#0x10
  0000000000000288: F94007E8  ldr         x8,[sp,#8]
  000000000000028C: 8B090108  add         x8,x8,x9
  0000000000000290: F90007E8  str         x8,[sp,#8]
  0000000000000294: F94007E8  ldr         x8,[sp,#8]
  0000000000000298: D1004109  sub         x9,x8,#0x10
  000000000000029C: F9400128  ldr         x8,[x9]
  00000000000002A0: F90013E8  str         x8,[sp,#0x20]
  00000000000002A4: B9400928  ldr         w8,[x9,#8]
  00000000000002A8: B9002BE8  str         w8,[sp,#0x28]
  00000000000002AC: BD402BF0  ldr         s16,[sp,#0x28]
  00000000000002B0: BD001BF0  str         s16,[sp,#0x18]
  00000000000002B4: BD4027F0  ldr         s16,[sp,#0x24]
  00000000000002B8: BD0017F0  str         s16,[sp,#0x14]
  00000000000002BC: BD4023F0  ldr         s16,[sp,#0x20]
  00000000000002C0: BD0013F0  str         s16,[sp,#0x10]
  00000000000002C4: D2800008  mov         x8,#0
  00000000000002C8: F90007E8  str         x8,[sp,#8]
  00000000000002CC: BD4013F1  ldr         s17,[sp,#0x10]
  00000000000002D0: BD4017F0  ldr         s16,[sp,#0x14]
  00000000000002D4: 1E302A31  fadd        s17,s17,s16
  00000000000002D8: BD401BF0  ldr         s16,[sp,#0x18]
  00000000000002DC: 1E302A20  fadd        s0,s17,s16
  00000000000002E0: 9100C3FF  add         sp,sp,#0x30
  00000000000002E4: 910103FF  add         sp,sp,#0x40
  00000000000002E8: D65F03C0  ret
  00000000000002EC: 00000000
call_S_FFF:
  00000000000002F0: A9BE7BFD  stp         fp,lr,[sp,#-0x20]!
  00000000000002F4: 910003FD  mov         fp,sp
  00000000000002F8: 1C0001D0  ldr         s16,$LN3
  00000000000002FC: BD0013F0  str         s16,[sp,#0x10]
  0000000000000300: 1C0001B0  ldr         s16,$LN4
  0000000000000304: BD0017F0  str         s16,[sp,#0x14]
  0000000000000308: 1C000190  ldr         s16,$LN5
  000000000000030C: BD001BF0  str         s16,[sp,#0x18]
  0000000000000310: BD401BE2  ldr         s2,[sp,#0x18]
  0000000000000314: BD4017E1  ldr         s1,[sp,#0x14]
  0000000000000318: BD4013E0  ldr         s0,[sp,#0x10]
  000000000000031C: 18000100  ldr         w0,$LN6
  0000000000000320: 94000000  bl          func_S_FFF
  0000000000000324: A8C27BFD  ldp         fp,lr,[sp],#0x20
  0000000000000328: D65F03C0  ret
  000000000000032C: D503201F  nop
$LN3:
  0000000000000330: 449A522C
$LN4:
  0000000000000334: 45160000
$LN5:
  0000000000000338: 44960000
$LN6:
  000000000000033C: CAFE2345  eon         x5,x26,lr,ror #8
call_variadic_S_FFF:
  0000000000000340: A9BE7BFD  stp         fp,lr,[sp,#-0x20]!
  0000000000000344: 910003FD  mov         fp,sp
  0000000000000348: 1C000190  ldr         s16,$LN3
  000000000000034C: BD0013F0  str         s16,[sp,#0x10]
  0000000000000350: 1C000170  ldr         s16,$LN4
  0000000000000354: BD0017F0  str         s16,[sp,#0x14]
  0000000000000358: 1C000150  ldr         s16,$LN5
  000000000000035C: BD001BF0  str         s16,[sp,#0x18]
  0000000000000360: B9401BE2  ldr         w2,[sp,#0x18]
  0000000000000364: F9400BE1  ldr         x1,[sp,#0x10]
  0000000000000368: 180000E0  ldr         w0,$LN6
  000000000000036C: 94000000  bl          variadic_func_S_FFF
  0000000000000370: A8C27BFD  ldp         fp,lr,[sp],#0x20
  0000000000000374: D65F03C0  ret
$LN3:
  0000000000000378: 449A522C
$LN4:
  000000000000037C: 45160000
$LN5:
  0000000000000380: 44960000
$LN6:
  0000000000000384: CAFE2345  eon         x5,x26,lr,ror #8
func_S_FFFF:
  0000000000000388: D10083FF  sub         sp,sp,#0x20
  000000000000038C: B90003E0  str         w0,[sp]
  0000000000000390: BD000BE0  str         s0,[sp,#8]
  0000000000000394: BD000FE1  str         s1,[sp,#0xC]
  0000000000000398: BD0013E2  str         s2,[sp,#0x10]
  000000000000039C: BD0017E3  str         s3,[sp,#0x14]
  00000000000003A0: BD400BF1  ldr         s17,[sp,#8]
  00000000000003A4: BD400FF0  ldr         s16,[sp,#0xC]
  00000000000003A8: 1E302A31  fadd        s17,s17,s16
  00000000000003AC: BD4013F0  ldr         s16,[sp,#0x10]
  00000000000003B0: 1E302A31  fadd        s17,s17,s16
  00000000000003B4: BD4017F0  ldr         s16,[sp,#0x14]
  00000000000003B8: 1E302A20  fadd        s0,s17,s16
  00000000000003BC: 910083FF  add         sp,sp,#0x20
  00000000000003C0: D65F03C0  ret
  00000000000003C4: 00000000
variadic_func_S_FFFF:
  00000000000003C8: D10103FF  sub         sp,sp,#0x40
  00000000000003CC: A9008BE1  stp         x1,x2,[sp,#8]
  00000000000003D0: A90193E3  stp         x3,x4,[sp,#0x18]
  00000000000003D4: A9029BE5  stp         x5,x6,[sp,#0x28]
  00000000000003D8: F9001FE7  str         x7,[sp,#0x38]
  00000000000003DC: D100C3FF  sub         sp,sp,#0x30
  00000000000003E0: B90003E0  str         w0,[sp]
  00000000000003E4: 9100E3E8  add         x8,sp,#0x38
  00000000000003E8: F90007E8  str         x8,[sp,#8]
  00000000000003EC: D2800009  mov         x9,#0
  00000000000003F0: F94007E8  ldr         x8,[sp,#8]
  00000000000003F4: CB080128  sub         x8,x9,x8
  00000000000003F8: 92400508  and         x8,x8,#3
  00000000000003FC: 91004109  add         x9,x8,#0x10
  0000000000000400: F94007E8  ldr         x8,[sp,#8]
  0000000000000404: 8B090108  add         x8,x8,x9
  0000000000000408: F90007E8  str         x8,[sp,#8]
  000000000000040C: F94007E8  ldr         x8,[sp,#8]
  0000000000000410: D1004108  sub         x8,x8,#0x10
  0000000000000414: 3DC00110  ldr         q16,[x8]
  0000000000000418: 3D800BF0  str         q16,[sp,#0x20]
  000000000000041C: BD402FF0  ldr         s16,[sp,#0x2C]
  0000000000000420: BD001FF0  str         s16,[sp,#0x1C]
  0000000000000424: BD402BF0  ldr         s16,[sp,#0x28]
  0000000000000428: BD001BF0  str         s16,[sp,#0x18]
  000000000000042C: BD4027F0  ldr         s16,[sp,#0x24]
  0000000000000430: BD0017F0  str         s16,[sp,#0x14]
  0000000000000434: BD4023F0  ldr         s16,[sp,#0x20]
  0000000000000438: BD0013F0  str         s16,[sp,#0x10]
  000000000000043C: D2800008  mov         x8,#0
  0000000000000440: F90007E8  str         x8,[sp,#8]
  0000000000000444: BD4013F1  ldr         s17,[sp,#0x10]
  0000000000000448: BD4017F0  ldr         s16,[sp,#0x14]
  000000000000044C: 1E302A31  fadd        s17,s17,s16
  0000000000000450: BD401BF0  ldr         s16,[sp,#0x18]
  0000000000000454: 1E302A31  fadd        s17,s17,s16
  0000000000000458: BD401FF0  ldr         s16,[sp,#0x1C]
  000000000000045C: 1E302A20  fadd        s0,s17,s16
  0000000000000460: 9100C3FF  add         sp,sp,#0x30
  0000000000000464: 910103FF  add         sp,sp,#0x40
  0000000000000468: D65F03C0  ret
  000000000000046C: 00000000
call_S_FFFF:
  0000000000000470: A9BE7BFD  stp         fp,lr,[sp,#-0x20]!
  0000000000000474: 910003FD  mov         fp,sp
  0000000000000478: 1C000210  ldr         s16,$LN3
  000000000000047C: BD0013F0  str         s16,[sp,#0x10]
  0000000000000480: 1C0001F0  ldr         s16,$LN4
  0000000000000484: BD0017F0  str         s16,[sp,#0x14]
  0000000000000488: 1C0001D0  ldr         s16,$LN5
  000000000000048C: BD001BF0  str         s16,[sp,#0x18]
  0000000000000490: 1C0001B0  ldr         s16,$LN6
  0000000000000494: BD001FF0  str         s16,[sp,#0x1C]
  0000000000000498: BD401FE3  ldr         s3,[sp,#0x1C]
  000000000000049C: BD401BE2  ldr         s2,[sp,#0x18]
  00000000000004A0: BD4017E1  ldr         s1,[sp,#0x14]
  00000000000004A4: BD4013E0  ldr         s0,[sp,#0x10]
  00000000000004A8: 18000100  ldr         w0,$LN7
  00000000000004AC: 94000000  bl          func_S_FFFF
  00000000000004B0: A8C27BFD  ldp         fp,lr,[sp],#0x20
  00000000000004B4: D65F03C0  ret
$LN3:
  00000000000004B8: 449A522C
$LN4:
  00000000000004BC: 46BB8000
$LN5:
  00000000000004C0: 463B8000
$LN6:
  00000000000004C4: 40490FDB
$LN7:
  00000000000004C8: CAFE4567  eon         x7,x11,lr,ror #0x11
  00000000000004CC: 00000000
call_variadic_S_FFFF:
  00000000000004D0: A9BE7BFD  stp         fp,lr,[sp,#-0x20]!
  00000000000004D4: 910003FD  mov         fp,sp
  00000000000004D8: 1C0001D0  ldr         s16,$LN3
  00000000000004DC: BD0013F0  str         s16,[sp,#0x10]
  00000000000004E0: 1C0001B0  ldr         s16,$LN4
  00000000000004E4: BD0017F0  str         s16,[sp,#0x14]
  00000000000004E8: 1C000190  ldr         s16,$LN5
  00000000000004EC: BD001BF0  str         s16,[sp,#0x18]
  00000000000004F0: 1C000170  ldr         s16,$LN6
  00000000000004F4: BD001FF0  str         s16,[sp,#0x1C]
  00000000000004F8: F9400FE2  ldr         x2,[sp,#0x18]
  00000000000004FC: F9400BE1  ldr         x1,[sp,#0x10]
  0000000000000500: 18000100  ldr         w0,$LN7
  0000000000000504: 94000000  bl          variadic_func_S_FFFF
  0000000000000508: A8C27BFD  ldp         fp,lr,[sp],#0x20
  000000000000050C: D65F03C0  ret
$LN3:
  0000000000000510: 449A522C
$LN4:
  0000000000000514: 46BB8000
$LN5:
  0000000000000518: 463B8000
$LN6:
  000000000000051C: 40490FDB
$LN7:
  0000000000000520: CAFE4567  eon         x7,x11,lr,ror #0x11
  0000000000000524: 00000000
func_S_D:
  0000000000000528: D10043FF  sub         sp,sp,#0x10
  000000000000052C: B90003E0  str         w0,[sp]
  0000000000000530: FD0007E0  str         d0,[sp,#8]
  0000000000000534: FD4007E0  ldr         d0,[sp,#8]
  0000000000000538: 910043FF  add         sp,sp,#0x10
  000000000000053C: D65F03C0  ret
variadic_func_S_D:
  0000000000000540: D10103FF  sub         sp,sp,#0x40
  0000000000000544: A9008BE1  stp         x1,x2,[sp,#8]
  0000000000000548: A90193E3  stp         x3,x4,[sp,#0x18]
  000000000000054C: A9029BE5  stp         x5,x6,[sp,#0x28]
  0000000000000550: F9001FE7  str         x7,[sp,#0x38]
  0000000000000554: D10083FF  sub         sp,sp,#0x20
  0000000000000558: B90003E0  str         w0,[sp]
  000000000000055C: 9100A3E8  add         x8,sp,#0x28
  0000000000000560: F90007E8  str         x8,[sp,#8]
  0000000000000564: D2800009  mov         x9,#0
  0000000000000568: F94007E8  ldr         x8,[sp,#8]
  000000000000056C: CB080128  sub         x8,x9,x8
  0000000000000570: 92400908  and         x8,x8,#7
  0000000000000574: 91002109  add         x9,x8,#8
  0000000000000578: F94007E8  ldr         x8,[sp,#8]
  000000000000057C: 8B090108  add         x8,x8,x9
  0000000000000580: F90007E8  str         x8,[sp,#8]
  0000000000000584: F94007E8  ldr         x8,[sp,#8]
  0000000000000588: D1002108  sub         x8,x8,#8
  000000000000058C: F9400108  ldr         x8,[x8]
  0000000000000590: F9000BE8  str         x8,[sp,#0x10]
  0000000000000594: FD400BF0  ldr         d16,[sp,#0x10]
  0000000000000598: FD000FF0  str         d16,[sp,#0x18]
  000000000000059C: D2800008  mov         x8,#0
  00000000000005A0: F90007E8  str         x8,[sp,#8]
  00000000000005A4: FD400FE0  ldr         d0,[sp,#0x18]
  00000000000005A8: 910083FF  add         sp,sp,#0x20
  00000000000005AC: 910103FF  add         sp,sp,#0x40
  00000000000005B0: D65F03C0  ret
  00000000000005B4: 00000000
call_S_D:
  00000000000005B8: A9BE7BFD  stp         fp,lr,[sp,#-0x20]!
  00000000000005BC: 910003FD  mov         fp,sp
  00000000000005C0: 5C000110  ldr         d16,$LN3
  00000000000005C4: FD000BF0  str         d16,[sp,#0x10]
  00000000000005C8: FD400BE0  ldr         d0,[sp,#0x10]
  00000000000005CC: 180000E0  ldr         w0,$LN4
  00000000000005D0: 94000000  bl          func_S_D
  00000000000005D4: A8C27BFD  ldp         fp,lr,[sp],#0x20
  00000000000005D8: D65F03C0  ret
  00000000000005DC: D503201F  nop
$LN3:
  00000000000005E0: 84FD0FC2  ld1sh       {z2.s},p3/z,[lr,z29.s sxtw #1]
  00000000000005E4: 40934A45
$LN4:
  00000000000005E8: CAFE5678  eon         x24,x19,lr,ror #0x15
  00000000000005EC: 00000000
call_variadic_S_D:
  00000000000005F0: A9BE7BFD  stp         fp,lr,[sp,#-0x20]!
  00000000000005F4: 910003FD  mov         fp,sp
  00000000000005F8: 5C000110  ldr         d16,$LN3
  00000000000005FC: FD000BF0  str         d16,[sp,#0x10]
  0000000000000600: F9400BE1  ldr         x1,[sp,#0x10]
  0000000000000604: 180000E0  ldr         w0,$LN4
  0000000000000608: 94000000  bl          variadic_func_S_D
  000000000000060C: A8C27BFD  ldp         fp,lr,[sp],#0x20
  0000000000000610: D65F03C0  ret
  0000000000000614: D503201F  nop
$LN3:
  0000000000000618: 84FD0FC2  ld1sh       {z2.s},p3/z,[lr,z29.s sxtw #1]
  000000000000061C: 40934A45
$LN4:
  0000000000000620: CAFE5678  eon         x24,x19,lr,ror #0x15
  0000000000000624: 00000000
func_S_DD:
  0000000000000628: D10083FF  sub         sp,sp,#0x20
  000000000000062C: B90003E0  str         w0,[sp]
  0000000000000630: FD0007E0  str         d0,[sp,#8]
  0000000000000634: FD000BE1  str         d1,[sp,#0x10]
  0000000000000638: FD4007F1  ldr         d17,[sp,#8]
  000000000000063C: FD400BF0  ldr         d16,[sp,#0x10]
  0000000000000640: 1E702A20  fadd        d0,d17,d16
  0000000000000644: 910083FF  add         sp,sp,#0x20
  0000000000000648: D65F03C0  ret
  000000000000064C: 00000000
variadic_func_S_DD:
  0000000000000650: D10103FF  sub         sp,sp,#0x40
  0000000000000654: A9008BE1  stp         x1,x2,[sp,#8]
  0000000000000658: A90193E3  stp         x3,x4,[sp,#0x18]
  000000000000065C: A9029BE5  stp         x5,x6,[sp,#0x28]
  0000000000000660: F9001FE7  str         x7,[sp,#0x38]
  0000000000000664: D100C3FF  sub         sp,sp,#0x30
  0000000000000668: B90003E0  str         w0,[sp]
  000000000000066C: 9100E3E8  add         x8,sp,#0x38
  0000000000000670: F90007E8  str         x8,[sp,#8]
  0000000000000674: D2800009  mov         x9,#0
  0000000000000678: F94007E8  ldr         x8,[sp,#8]
  000000000000067C: CB080128  sub         x8,x9,x8
  0000000000000680: 92400908  and         x8,x8,#7
  0000000000000684: 91004109  add         x9,x8,#0x10
  0000000000000688: F94007E8  ldr         x8,[sp,#8]
  000000000000068C: 8B090108  add         x8,x8,x9
  0000000000000690: F90007E8  str         x8,[sp,#8]
  0000000000000694: F94007E8  ldr         x8,[sp,#8]
  0000000000000698: D1004108  sub         x8,x8,#0x10
  000000000000069C: 3DC00110  ldr         q16,[x8]
  00000000000006A0: 3D800BF0  str         q16,[sp,#0x20]
  00000000000006A4: FD4017F0  ldr         d16,[sp,#0x28]
  00000000000006A8: FD000FF0  str         d16,[sp,#0x18]
  00000000000006AC: FD4013F0  ldr         d16,[sp,#0x20]
  00000000000006B0: FD000BF0  str         d16,[sp,#0x10]
  00000000000006B4: D2800008  mov         x8,#0
  00000000000006B8: F90007E8  str         x8,[sp,#8]
  00000000000006BC: FD400BF1  ldr         d17,[sp,#0x10]
  00000000000006C0: FD400FF0  ldr         d16,[sp,#0x18]
  00000000000006C4: 1E702A20  fadd        d0,d17,d16
  00000000000006C8: 9100C3FF  add         sp,sp,#0x30
  00000000000006CC: 910103FF  add         sp,sp,#0x40
  00000000000006D0: D65F03C0  ret
  00000000000006D4: 00000000
call_S_DD:
  00000000000006D8: A9BE7BFD  stp         fp,lr,[sp,#-0x20]!
  00000000000006DC: 910003FD  mov         fp,sp
  00000000000006E0: 5C000150  ldr         d16,$LN3
  00000000000006E4: FD000BF0  str         d16,[sp,#0x10]
  00000000000006E8: 5C000150  ldr         d16,$LN4
  00000000000006EC: FD000FF0  str         d16,[sp,#0x18]
  00000000000006F0: FD400FE1  ldr         d1,[sp,#0x18]
  00000000000006F4: FD400BE0  ldr         d0,[sp,#0x10]
  00000000000006F8: 18000100  ldr         w0,$LN5
  00000000000006FC: 94000000  bl          func_S_DD
  0000000000000700: A8C27BFD  ldp         fp,lr,[sp],#0x20
  0000000000000704: D65F03C0  ret
$LN3:
  0000000000000708: 84FD0FC2  ld1sh       {z2.s},p3/z,[lr,z29.s sxtw #1]
  000000000000070C: 40934A45
$LN4:
  0000000000000710: 00000000
  0000000000000714: 406E0000
$LN5:
  0000000000000718: CAFE6789  eon         x9,x28,lr,ror #0x19
  000000000000071C: 00000000
call_variadic_S_DD:
  0000000000000720: A9BE7BFD  stp         fp,lr,[sp,#-0x20]!
  0000000000000724: 910003FD  mov         fp,sp
  0000000000000728: 5C000150  ldr         d16,$LN3
  000000000000072C: FD000BF0  str         d16,[sp,#0x10]
  0000000000000730: 5C000150  ldr         d16,$LN4
  0000000000000734: FD000FF0  str         d16,[sp,#0x18]
  0000000000000738: F9400FE2  ldr         x2,[sp,#0x18]
  000000000000073C: F9400BE1  ldr         x1,[sp,#0x10]
  0000000000000740: 18000100  ldr         w0,$LN5
  0000000000000744: 94000000  bl          variadic_func_S_DD
  0000000000000748: A8C27BFD  ldp         fp,lr,[sp],#0x20
  000000000000074C: D65F03C0  ret
$LN3:
  0000000000000750: 84FD0FC2  ld1sh       {z2.s},p3/z,[lr,z29.s sxtw #1]
  0000000000000754: 40934A45
$LN4:
  0000000000000758: 00000000
  000000000000075C: 406E0000
$LN5:
  0000000000000760: CAFE6789  eon         x9,x28,lr,ror #0x19
  0000000000000764: 00000000
func_S_DDD:
  0000000000000768: D10083FF  sub         sp,sp,#0x20
  000000000000076C: B90003E0  str         w0,[sp]
  0000000000000770: FD0007E0  str         d0,[sp,#8]
  0000000000000774: FD000BE1  str         d1,[sp,#0x10]
  0000000000000778: FD000FE2  str         d2,[sp,#0x18]
  000000000000077C: FD4007F1  ldr         d17,[sp,#8]
  0000000000000780: FD400BF0  ldr         d16,[sp,#0x10]
  0000000000000784: 1E702A31  fadd        d17,d17,d16
  0000000000000788: FD400FF0  ldr         d16,[sp,#0x18]
  000000000000078C: 1E702A20  fadd        d0,d17,d16
  0000000000000790: 910083FF  add         sp,sp,#0x20
  0000000000000794: D65F03C0  ret
variadic_func_S_DDD:
  0000000000000798: D10103FF  sub         sp,sp,#0x40
  000000000000079C: A9008BE1  stp         x1,x2,[sp,#8]
  00000000000007A0: A90193E3  stp         x3,x4,[sp,#0x18]
  00000000000007A4: A9029BE5  stp         x5,x6,[sp,#0x28]
  00000000000007A8: F9001FE7  str         x7,[sp,#0x38]
  00000000000007AC: D10143FF  sub         sp,sp,#0x50
  00000000000007B0: B90003E0  str         w0,[sp]
  00000000000007B4: 910163E8  add         x8,sp,#0x58
  00000000000007B8: F90007E8  str         x8,[sp,#8]
  00000000000007BC: F94007E8  ldr         x8,[sp,#8]
  00000000000007C0: 91002108  add         x8,x8,#8
  00000000000007C4: F90007E8  str         x8,[sp,#8]
  00000000000007C8: F94007E8  ldr         x8,[sp,#8]
  00000000000007CC: D1002108  sub         x8,x8,#8
  00000000000007D0: F9400108  ldr         x8,[x8]
  00000000000007D4: 3DC00110  ldr         q16,[x8]
  00000000000007D8: 3D800FF0  str         q16,[sp,#0x30]
  00000000000007DC: F9400908  ldr         x8,[x8,#0x10]
  00000000000007E0: F90023E8  str         x8,[sp,#0x40]
  00000000000007E4: FD4023F0  ldr         d16,[sp,#0x40]
  00000000000007E8: FD0013F0  str         d16,[sp,#0x20]
  00000000000007EC: FD401FF0  ldr         d16,[sp,#0x38]
  00000000000007F0: FD000FF0  str         d16,[sp,#0x18]
  00000000000007F4: FD401BF0  ldr         d16,[sp,#0x30]
  00000000000007F8: FD000BF0  str         d16,[sp,#0x10]
  00000000000007FC: D2800008  mov         x8,#0
  0000000000000800: F90007E8  str         x8,[sp,#8]
  0000000000000804: FD400BF1  ldr         d17,[sp,#0x10]
  0000000000000808: FD400FF0  ldr         d16,[sp,#0x18]
  000000000000080C: 1E702A31  fadd        d17,d17,d16
  0000000000000810: FD4013F0  ldr         d16,[sp,#0x20]
  0000000000000814: 1E702A20  fadd        d0,d17,d16
  0000000000000818: 910143FF  add         sp,sp,#0x50
  000000000000081C: 910103FF  add         sp,sp,#0x40
  0000000000000820: D65F03C0  ret
  0000000000000824: 00000000
call_S_DDD:
  0000000000000828: A9BD7BFD  stp         fp,lr,[sp,#-0x30]!
  000000000000082C: 910003FD  mov         fp,sp
  0000000000000830: 5C0001D0  ldr         d16,$LN3
  0000000000000834: FD000BF0  str         d16,[sp,#0x10]
  0000000000000838: 5C0001D0  ldr         d16,$LN4
  000000000000083C: FD000FF0  str         d16,[sp,#0x18]
  0000000000000840: 5C0001D0  ldr         d16,$LN5
  0000000000000844: FD0013F0  str         d16,[sp,#0x20]
  0000000000000848: FD4013E2  ldr         d2,[sp,#0x20]
  000000000000084C: FD400FE1  ldr         d1,[sp,#0x18]
  0000000000000850: FD400BE0  ldr         d0,[sp,#0x10]
  0000000000000854: 18000160  ldr         w0,$LN6
  0000000000000858: 94000000  bl          func_S_DDD
  000000000000085C: A8C37BFD  ldp         fp,lr,[sp],#0x30
  0000000000000860: D65F03C0  ret
  0000000000000864: D503201F  nop
$LN3:
  0000000000000868: 84FD0FC2  ld1sh       {z2.s},p3/z,[lr,z29.s sxtw #1]
  000000000000086C: 40934A45
$LN4:
  0000000000000870: 00000000
  0000000000000874: 40A2C000
$LN5:
  0000000000000878: 00000000
  000000000000087C: 4092C000
$LN6:
  0000000000000880: CAFE7890  eon         xip0,x4,lr,ror #0x1E
  0000000000000884: 00000000
call_variadic_S_DDD:
  0000000000000888: A9BB7BFD  stp         fp,lr,[sp,#-0x50]!
  000000000000088C: 910003FD  mov         fp,sp
  0000000000000890: 5C000250  ldr         d16,$LN3
  0000000000000894: FD000BF0  str         d16,[sp,#0x10]
  0000000000000898: 5C000250  ldr         d16,$LN4
  000000000000089C: FD000FF0  str         d16,[sp,#0x18]
  00000000000008A0: 5C000250  ldr         d16,$LN5
  00000000000008A4: FD0013F0  str         d16,[sp,#0x20]
  00000000000008A8: FD4013F0  ldr         d16,[sp,#0x20]
  00000000000008AC: FD0023F0  str         d16,[sp,#0x40]
  00000000000008B0: FD400FF0  ldr         d16,[sp,#0x18]
  00000000000008B4: FD001FF0  str         d16,[sp,#0x38]
  00000000000008B8: FD400BF0  ldr         d16,[sp,#0x10]
  00000000000008BC: FD001BF0  str         d16,[sp,#0x30]
  00000000000008C0: 9100C3E1  add         x1,sp,#0x30
  00000000000008C4: 18000160  ldr         w0,$LN6
  00000000000008C8: 94000000  bl          variadic_func_S_DDD
  00000000000008CC: A8C57BFD  ldp         fp,lr,[sp],#0x50
  00000000000008D0: D65F03C0  ret
  00000000000008D4: D503201F  nop
$LN3:
  00000000000008D8: 84FD0FC2  ld1sh       {z2.s},p3/z,[lr,z29.s sxtw #1]
  00000000000008DC: 40934A45
$LN4:
  00000000000008E0: 00000000
  00000000000008E4: 40A2C000
$LN5:
  00000000000008E8: 00000000
  00000000000008EC: 4092C000
$LN6:
  00000000000008F0: CAFE7890  eon         xip0,x4,lr,ror #0x1E
  00000000000008F4: 00000000
func_S_DDDD:
  00000000000008F8: D100C3FF  sub         sp,sp,#0x30
  00000000000008FC: B90003E0  str         w0,[sp]
  0000000000000900: FD0007E0  str         d0,[sp,#8]
  0000000000000904: FD000BE1  str         d1,[sp,#0x10]
  0000000000000908: FD000FE2  str         d2,[sp,#0x18]
  000000000000090C: FD0013E3  str         d3,[sp,#0x20]
  0000000000000910: FD4007F1  ldr         d17,[sp,#8]
  0000000000000914: FD400BF0  ldr         d16,[sp,#0x10]
  0000000000000918: 1E702A31  fadd        d17,d17,d16
  000000000000091C: FD400FF0  ldr         d16,[sp,#0x18]
  0000000000000920: 1E702A31  fadd        d17,d17,d16
  0000000000000924: FD4013F0  ldr         d16,[sp,#0x20]
  0000000000000928: 1E702A20  fadd        d0,d17,d16
  000000000000092C: 9100C3FF  add         sp,sp,#0x30
  0000000000000930: D65F03C0  ret
  0000000000000934: 00000000
variadic_func_S_DDDD:
  0000000000000938: D10103FF  sub         sp,sp,#0x40
  000000000000093C: A9008BE1  stp         x1,x2,[sp,#8]
  0000000000000940: A90193E3  stp         x3,x4,[sp,#0x18]
  0000000000000944: A9029BE5  stp         x5,x6,[sp,#0x28]
  0000000000000948: F9001FE7  str         x7,[sp,#0x38]
  000000000000094C: D10143FF  sub         sp,sp,#0x50
  0000000000000950: B90003E0  str         w0,[sp]
  0000000000000954: 910163E8  add         x8,sp,#0x58
  0000000000000958: F90007E8  str         x8,[sp,#8]
  000000000000095C: F94007E8  ldr         x8,[sp,#8]
  0000000000000960: 91002108  add         x8,x8,#8
  0000000000000964: F90007E8  str         x8,[sp,#8]
  0000000000000968: F94007E8  ldr         x8,[sp,#8]
  000000000000096C: D1002108  sub         x8,x8,#8
  0000000000000970: F9400108  ldr         x8,[x8]
  0000000000000974: 3DC00110  ldr         q16,[x8]
  0000000000000978: 3D800FF0  str         q16,[sp,#0x30]
  000000000000097C: 3DC00510  ldr         q16,[x8,#0x10]
  0000000000000980: 3D8013F0  str         q16,[sp,#0x40]
  0000000000000984: FD4027F0  ldr         d16,[sp,#0x48]
  0000000000000988: FD0017F0  str         d16,[sp,#0x28]
  000000000000098C: FD4023F0  ldr         d16,[sp,#0x40]
  0000000000000990: FD0013F0  str         d16,[sp,#0x20]
  0000000000000994: FD401FF0  ldr         d16,[sp,#0x38]
  0000000000000998: FD000FF0  str         d16,[sp,#0x18]
  000000000000099C: FD401BF0  ldr         d16,[sp,#0x30]
  00000000000009A0: FD000BF0  str         d16,[sp,#0x10]
  00000000000009A4: D2800008  mov         x8,#0
  00000000000009A8: F90007E8  str         x8,[sp,#8]
  00000000000009AC: FD400BF1  ldr         d17,[sp,#0x10]
  00000000000009B0: FD400FF0  ldr         d16,[sp,#0x18]
  00000000000009B4: 1E702A31  fadd        d17,d17,d16
  00000000000009B8: FD4013F0  ldr         d16,[sp,#0x20]
  00000000000009BC: 1E702A31  fadd        d17,d17,d16
  00000000000009C0: FD4017F0  ldr         d16,[sp,#0x28]
  00000000000009C4: 1E702A20  fadd        d0,d17,d16
  00000000000009C8: 910143FF  add         sp,sp,#0x50
  00000000000009CC: 910103FF  add         sp,sp,#0x40
  00000000000009D0: D65F03C0  ret
  00000000000009D4: 00000000
call_S_DDDD:
  00000000000009D8: A9BD7BFD  stp         fp,lr,[sp,#-0x30]!
  00000000000009DC: 910003FD  mov         fp,sp
  00000000000009E0: 5C000210  ldr         d16,$LN3
  00000000000009E4: FD000BF0  str         d16,[sp,#0x10]
  00000000000009E8: 5C000210  ldr         d16,$LN4
  00000000000009EC: FD000FF0  str         d16,[sp,#0x18]
  00000000000009F0: 5C000210  ldr         d16,$LN5
  00000000000009F4: FD0013F0  str         d16,[sp,#0x20]
  00000000000009F8: 5C000210  ldr         d16,$LN6
  00000000000009FC: FD0017F0  str         d16,[sp,#0x28]
  0000000000000A00: FD4017E3  ldr         d3,[sp,#0x28]
  0000000000000A04: FD4013E2  ldr         d2,[sp,#0x20]
  0000000000000A08: FD400FE1  ldr         d1,[sp,#0x18]
  0000000000000A0C: FD400BE0  ldr         d0,[sp,#0x10]
  0000000000000A10: 18000180  ldr         w0,$LN7
  0000000000000A14: 94000000  bl          func_S_DDDD
  0000000000000A18: A8C37BFD  ldp         fp,lr,[sp],#0x30
  0000000000000A1C: D65F03C0  ret
$LN3:
  0000000000000A20: 84FD0FC2  ld1sh       {z2.s},p3/z,[lr,z29.s sxtw #1]
  0000000000000A24: 40934A45
$LN4:
  0000000000000A28: 00000000
  0000000000000A2C: 40D77000
$LN5:
  0000000000000A30: 00000000
  0000000000000A34: 40C77000
$LN6:
  0000000000000A38: 54442D18
  0000000000000A3C: 400921FB
$LN7:
  0000000000000A40: CAFE890A  eon         x10,x8,lr,ror #0x22
  0000000000000A44: 00000000
call_variadic_S_DDDD:
  0000000000000A48: A9BB7BFD  stp         fp,lr,[sp,#-0x50]!
  0000000000000A4C: 910003FD  mov         fp,sp
  0000000000000A50: 5C0002D0  ldr         d16,$LN3
  0000000000000A54: FD000BF0  str         d16,[sp,#0x10]
  0000000000000A58: 5C0002D0  ldr         d16,$LN4
  0000000000000A5C: FD000FF0  str         d16,[sp,#0x18]
  0000000000000A60: 5C0002D0  ldr         d16,$LN5
  0000000000000A64: FD0013F0  str         d16,[sp,#0x20]
  0000000000000A68: 5C0002D0  ldr         d16,$LN6
  0000000000000A6C: FD0017F0  str         d16,[sp,#0x28]
  0000000000000A70: FD4017F0  ldr         d16,[sp,#0x28]
  0000000000000A74: FD0027F0  str         d16,[sp,#0x48]
  0000000000000A78: FD4013F0  ldr         d16,[sp,#0x20]
  0000000000000A7C: FD0023F0  str         d16,[sp,#0x40]
  0000000000000A80: FD400FF0  ldr         d16,[sp,#0x18]
  0000000000000A84: FD001FF0  str         d16,[sp,#0x38]
  0000000000000A88: FD400BF0  ldr         d16,[sp,#0x10]
  0000000000000A8C: FD001BF0  str         d16,[sp,#0x30]
  0000000000000A90: 9100C3E1  add         x1,sp,#0x30
  0000000000000A94: 180001A0  ldr         w0,$LN7
  0000000000000A98: 94000000  bl          variadic_func_S_DDDD
  0000000000000A9C: A8C57BFD  ldp         fp,lr,[sp],#0x50
  0000000000000AA0: D65F03C0  ret
  0000000000000AA4: D503201F  nop
$LN3:
  0000000000000AA8: 84FD0FC2  ld1sh       {z2.s},p3/z,[lr,z29.s sxtw #1]
  0000000000000AAC: 40934A45
$LN4:
  0000000000000AB0: 00000000
  0000000000000AB4: 40D77000
$LN5:
  0000000000000AB8: 00000000
  0000000000000ABC: 40C77000
$LN6:
  0000000000000AC0: 54442D18
  0000000000000AC4: 400921FB
$LN7:
  0000000000000AC8: CAFE890A  eon         x10,x8,lr,ror #0x22
  0000000000000ACC: 00000000
sum_struct_hfa_floats:
  0000000000000AD0: D10103FF  sub         sp,sp,#0x40
  0000000000000AD4: A9008BE1  stp         x1,x2,[sp,#8]
  0000000000000AD8: A90193E3  stp         x3,x4,[sp,#0x18]
  0000000000000ADC: A9029BE5  stp         x5,x6,[sp,#0x28]
  0000000000000AE0: F9001FE7  str         x7,[sp,#0x38]
  0000000000000AE4: D101C3FF  sub         sp,sp,#0x70
  0000000000000AE8: B90013E0  str         w0,[sp,#0x10]
  0000000000000AEC: 9101E3E8  add         x8,sp,#0x78
  0000000000000AF0: F90003E8  str         x8,[sp]
  0000000000000AF4: 2F00E410  movi        d16,#0
  0000000000000AF8: BD000BF0  str         s16,[sp,#8]
  0000000000000AFC: B94013E8  ldr         w8,[sp,#0x10]
  0000000000000B00: B9000FE8  str         w8,[sp,#0xC]
  0000000000000B04: B9400FE8  ldr         w8,[sp,#0xC]
  0000000000000B08: 7100051F  cmp         w8,#1
  0000000000000B0C: 54000160  beq         $LN4
  0000000000000B10: B9400FE8  ldr         w8,[sp,#0xC]
  0000000000000B14: 7100091F  cmp         w8,#2
  0000000000000B18: 54000320  beq         $LN5
  0000000000000B1C: B9400FE8  ldr         w8,[sp,#0xC]
  0000000000000B20: 71000D1F  cmp         w8,#3
  0000000000000B24: 54000560  beq         $LN6
  0000000000000B28: B9400FE8  ldr         w8,[sp,#0xC]
  0000000000000B2C: 7100111F  cmp         w8,#4
  0000000000000B30: 54000860  beq         $LN7
  0000000000000B34: 1400005E  b           $LN2
$LN4:
  0000000000000B38: D2800009  mov         x9,#0
  0000000000000B3C: F94003E8  ldr         x8,[sp]
  0000000000000B40: CB080128  sub         x8,x9,x8
  0000000000000B44: 92400508  and         x8,x8,#3
  0000000000000B48: 91002109  add         x9,x8,#8
  0000000000000B4C: F94003E8  ldr         x8,[sp]
  0000000000000B50: 8B090108  add         x8,x8,x9
  0000000000000B54: F90003E8  str         x8,[sp]
  0000000000000B58: F94003E8  ldr         x8,[sp]
  0000000000000B5C: D1002108  sub         x8,x8,#8
  0000000000000B60: B9400108  ldr         w8,[x8]
  0000000000000B64: B90017E8  str         w8,[sp,#0x14]
  0000000000000B68: BD4017F0  ldr         s16,[sp,#0x14]
  0000000000000B6C: BD001BF0  str         s16,[sp,#0x18]
  0000000000000B70: BD401BF0  ldr         s16,[sp,#0x18]
  0000000000000B74: BD000BF0  str         s16,[sp,#8]
  0000000000000B78: 1400004D  b           $LN2
$LN5:
  0000000000000B7C: D2800009  mov         x9,#0
  0000000000000B80: F94003E8  ldr         x8,[sp]
  0000000000000B84: CB080128  sub         x8,x9,x8
  0000000000000B88: 92400508  and         x8,x8,#3
  0000000000000B8C: 91002109  add         x9,x8,#8
  0000000000000B90: F94003E8  ldr         x8,[sp]
  0000000000000B94: 8B090108  add         x8,x8,x9
  0000000000000B98: F90003E8  str         x8,[sp]
  0000000000000B9C: F94003E8  ldr         x8,[sp]
  0000000000000BA0: D1002108  sub         x8,x8,#8
  0000000000000BA4: F9400108  ldr         x8,[x8]
  0000000000000BA8: F9002FE8  str         x8,[sp,#0x58]
  0000000000000BAC: BD405FF0  ldr         s16,[sp,#0x5C]
  0000000000000BB0: BD0027F0  str         s16,[sp,#0x24]
  0000000000000BB4: BD405BF0  ldr         s16,[sp,#0x58]
  0000000000000BB8: BD0023F0  str         s16,[sp,#0x20]
  0000000000000BBC: BD4023F1  ldr         s17,[sp,#0x20]
  0000000000000BC0: BD4027F0  ldr         s16,[sp,#0x24]
  0000000000000BC4: 1E302A30  fadd        s16,s17,s16
  0000000000000BC8: BD000BF0  str         s16,[sp,#8]
  0000000000000BCC: 14000038  b           $LN2
$LN6:
  0000000000000BD0: D2800009  mov         x9,#0
  0000000000000BD4: F94003E8  ldr         x8,[sp]
  0000000000000BD8: CB080128  sub         x8,x9,x8
  0000000000000BDC: 92400508  and         x8,x8,#3
  0000000000000BE0: 91004109  add         x9,x8,#0x10
  0000000000000BE4: F94003E8  ldr         x8,[sp]
  0000000000000BE8: 8B090108  add         x8,x8,x9
  0000000000000BEC: F90003E8  str         x8,[sp]
  0000000000000BF0: F94003E8  ldr         x8,[sp]
  0000000000000BF4: D1004109  sub         x9,x8,#0x10
  0000000000000BF8: F9400128  ldr         x8,[x9]
  0000000000000BFC: F90027E8  str         x8,[sp,#0x48]
  0000000000000C00: B9400928  ldr         w8,[x9,#8]
  0000000000000C04: B90053E8  str         w8,[sp,#0x50]
  0000000000000C08: BD4053F0  ldr         s16,[sp,#0x50]
  0000000000000C0C: BD0033F0  str         s16,[sp,#0x30]
  0000000000000C10: BD404FF0  ldr         s16,[sp,#0x4C]
  0000000000000C14: BD002FF0  str         s16,[sp,#0x2C]
  0000000000000C18: BD404BF0  ldr         s16,[sp,#0x48]
  0000000000000C1C: BD002BF0  str         s16,[sp,#0x28]
  0000000000000C20: BD402BF1  ldr         s17,[sp,#0x28]
  0000000000000C24: BD402FF0  ldr         s16,[sp,#0x2C]
  0000000000000C28: 1E302A31  fadd        s17,s17,s16
  0000000000000C2C: BD4033F0  ldr         s16,[sp,#0x30]
  0000000000000C30: 1E302A30  fadd        s16,s17,s16
  0000000000000C34: BD000BF0  str         s16,[sp,#8]
  0000000000000C38: 1400001D  b           $LN2
$LN7:
  0000000000000C3C: D2800009  mov         x9,#0
  0000000000000C40: F94003E8  ldr         x8,[sp]
  0000000000000C44: CB080128  sub         x8,x9,x8
  0000000000000C48: 92400508  and         x8,x8,#3
  0000000000000C4C: 91004109  add         x9,x8,#0x10
  0000000000000C50: F94003E8  ldr         x8,[sp]
  0000000000000C54: 8B090108  add         x8,x8,x9
  0000000000000C58: F90003E8  str         x8,[sp]
  0000000000000C5C: F94003E8  ldr         x8,[sp]
  0000000000000C60: D1004108  sub         x8,x8,#0x10
  0000000000000C64: 3DC00110  ldr         q16,[x8]
  0000000000000C68: 3D801BF0  str         q16,[sp,#0x60]
  0000000000000C6C: BD406FF0  ldr         s16,[sp,#0x6C]
  0000000000000C70: BD0047F0  str         s16,[sp,#0x44]
  0000000000000C74: BD406BF0  ldr         s16,[sp,#0x68]
  0000000000000C78: BD0043F0  str         s16,[sp,#0x40]
  0000000000000C7C: BD4067F0  ldr         s16,[sp,#0x64]
  0000000000000C80: BD003FF0  str         s16,[sp,#0x3C]
  0000000000000C84: BD4063F0  ldr         s16,[sp,#0x60]
  0000000000000C88: BD003BF0  str         s16,[sp,#0x38]
  0000000000000C8C: BD403BF1  ldr         s17,[sp,#0x38]
  0000000000000C90: BD403FF0  ldr         s16,[sp,#0x3C]
  0000000000000C94: 1E302A31  fadd        s17,s17,s16
  0000000000000C98: BD4043F0  ldr         s16,[sp,#0x40]
  0000000000000C9C: 1E302A31  fadd        s17,s17,s16
  0000000000000CA0: BD4047F0  ldr         s16,[sp,#0x44]
  0000000000000CA4: 1E302A30  fadd        s16,s17,s16
  0000000000000CA8: BD000BF0  str         s16,[sp,#8]
$LN2:
  0000000000000CAC: D2800008  mov         x8,#0
  0000000000000CB0: F90003E8  str         x8,[sp]
  0000000000000CB4: BD400BE0  ldr         s0,[sp,#8]
  0000000000000CB8: 9101C3FF  add         sp,sp,#0x70
  0000000000000CBC: 910103FF  add         sp,sp,#0x40
  0000000000000CC0: D65F03C0  ret
  0000000000000CC4: 00000000
sum_struct_hfa_doubles:
  0000000000000CC8: D10103FF  sub         sp,sp,#0x40
  0000000000000CCC: A9008BE1  stp         x1,x2,[sp,#8]
  0000000000000CD0: A90193E3  stp         x3,x4,[sp,#0x18]
  0000000000000CD4: A9029BE5  stp         x5,x6,[sp,#0x28]
  0000000000000CD8: F9001FE7  str         x7,[sp,#0x38]
  0000000000000CDC: D10343FF  sub         sp,sp,#0xD0
  0000000000000CE0: B9001BE0  str         w0,[sp,#0x18]
  0000000000000CE4: 910363E8  add         x8,sp,#0xD8
  0000000000000CE8: F90003E8  str         x8,[sp]
  0000000000000CEC: 2F00E410  movi        d16,#0
  0000000000000CF0: FD000BF0  str         d16,[sp,#0x10]
  0000000000000CF4: B9401BE8  ldr         w8,[sp,#0x18]
  0000000000000CF8: B9000BE8  str         w8,[sp,#8]
  0000000000000CFC: B9400BE8  ldr         w8,[sp,#8]
  0000000000000D00: 7100051F  cmp         w8,#1
  0000000000000D04: 54000160  beq         $LN4
  0000000000000D08: B9400BE8  ldr         w8,[sp,#8]
  0000000000000D0C: 7100091F  cmp         w8,#2
  0000000000000D10: 54000320  beq         $LN5
  0000000000000D14: B9400BE8  ldr         w8,[sp,#8]
  0000000000000D18: 71000D1F  cmp         w8,#3
  0000000000000D1C: 54000560  beq         $LN6
  0000000000000D20: B9400BE8  ldr         w8,[sp,#8]
  0000000000000D24: 7100111F  cmp         w8,#4
  0000000000000D28: 540007E0  beq         $LN7
  0000000000000D2C: 14000058  b           $LN2
$LN4:
  0000000000000D30: D2800009  mov         x9,#0
  0000000000000D34: F94003E8  ldr         x8,[sp]
  0000000000000D38: CB080128  sub         x8,x9,x8
  0000000000000D3C: 92400908  and         x8,x8,#7
  0000000000000D40: 91002109  add         x9,x8,#8
  0000000000000D44: F94003E8  ldr         x8,[sp]
  0000000000000D48: 8B090108  add         x8,x8,x9
  0000000000000D4C: F90003E8  str         x8,[sp]
  0000000000000D50: F94003E8  ldr         x8,[sp]
  0000000000000D54: D1002108  sub         x8,x8,#8
  0000000000000D58: F9400108  ldr         x8,[x8]
  0000000000000D5C: F90013E8  str         x8,[sp,#0x20]
  0000000000000D60: FD4013F0  ldr         d16,[sp,#0x20]
  0000000000000D64: FD0017F0  str         d16,[sp,#0x28]
  0000000000000D68: FD4017F0  ldr         d16,[sp,#0x28]
  0000000000000D6C: FD000BF0  str         d16,[sp,#0x10]
  0000000000000D70: 14000047  b           $LN2
$LN5:
  0000000000000D74: D2800009  mov         x9,#0
  0000000000000D78: F94003E8  ldr         x8,[sp]
  0000000000000D7C: CB080128  sub         x8,x9,x8
  0000000000000D80: 92400908  and         x8,x8,#7
  0000000000000D84: 91004109  add         x9,x8,#0x10
  0000000000000D88: F94003E8  ldr         x8,[sp]
  0000000000000D8C: 8B090108  add         x8,x8,x9
  0000000000000D90: F90003E8  str         x8,[sp]
  0000000000000D94: F94003E8  ldr         x8,[sp]
  0000000000000D98: D1004108  sub         x8,x8,#0x10
  0000000000000D9C: 3DC00110  ldr         q16,[x8]
  0000000000000DA0: 3D802BF0  str         q16,[sp,#0xA0]
  0000000000000DA4: FD4057F0  ldr         d16,[sp,#0xA8]
  0000000000000DA8: FD001FF0  str         d16,[sp,#0x38]
  0000000000000DAC: FD4053F0  ldr         d16,[sp,#0xA0]
  0000000000000DB0: FD001BF0  str         d16,[sp,#0x30]
  0000000000000DB4: FD401BF1  ldr         d17,[sp,#0x30]
  0000000000000DB8: FD401FF0  ldr         d16,[sp,#0x38]
  0000000000000DBC: 1E702A30  fadd        d16,d17,d16
  0000000000000DC0: FD000BF0  str         d16,[sp,#0x10]
  0000000000000DC4: 14000032  b           $LN2
$LN6:
  0000000000000DC8: F94003E8  ldr         x8,[sp]
  0000000000000DCC: 91002108  add         x8,x8,#8
  0000000000000DD0: F90003E8  str         x8,[sp]
  0000000000000DD4: F94003E8  ldr         x8,[sp]
  0000000000000DD8: D1002108  sub         x8,x8,#8
  0000000000000DDC: F9400108  ldr         x8,[x8]
  0000000000000DE0: 3DC00110  ldr         q16,[x8]
  0000000000000DE4: 3D8023F0  str         q16,[sp,#0x80]
  0000000000000DE8: F9400908  ldr         x8,[x8,#0x10]
  0000000000000DEC: F9004BE8  str         x8,[sp,#0x90]
  0000000000000DF0: FD404BF0  ldr         d16,[sp,#0x90]
  0000000000000DF4: FD002BF0  str         d16,[sp,#0x50]
  0000000000000DF8: FD4047F0  ldr         d16,[sp,#0x88]
  0000000000000DFC: FD0027F0  str         d16,[sp,#0x48]
  0000000000000E00: FD4043F0  ldr         d16,[sp,#0x80]
  0000000000000E04: FD0023F0  str         d16,[sp,#0x40]
  0000000000000E08: FD4023F1  ldr         d17,[sp,#0x40]
  0000000000000E0C: FD4027F0  ldr         d16,[sp,#0x48]
  0000000000000E10: 1E702A31  fadd        d17,d17,d16
  0000000000000E14: FD402BF0  ldr         d16,[sp,#0x50]
  0000000000000E18: 1E702A30  fadd        d16,d17,d16
  0000000000000E1C: FD000BF0  str         d16,[sp,#0x10]
  0000000000000E20: 1400001B  b           $LN2
$LN7:
  0000000000000E24: F94003E8  ldr         x8,[sp]
  0000000000000E28: 91002108  add         x8,x8,#8
  0000000000000E2C: F90003E8  str         x8,[sp]
  0000000000000E30: F94003E8  ldr         x8,[sp]
  0000000000000E34: D1002108  sub         x8,x8,#8
  0000000000000E38: F9400108  ldr         x8,[x8]
  0000000000000E3C: 3DC00110  ldr         q16,[x8]
  0000000000000E40: 3D802FF0  str         q16,[sp,#0xB0]
  0000000000000E44: 3DC00510  ldr         q16,[x8,#0x10]
  0000000000000E48: 3D8033F0  str         q16,[sp,#0xC0]
  0000000000000E4C: FD4067F0  ldr         d16,[sp,#0xC8]
  0000000000000E50: FD003BF0  str         d16,[sp,#0x70]
  0000000000000E54: FD4063F0  ldr         d16,[sp,#0xC0]
  0000000000000E58: FD0037F0  str         d16,[sp,#0x68]
  0000000000000E5C: FD405FF0  ldr         d16,[sp,#0xB8]
  0000000000000E60: FD0033F0  str         d16,[sp,#0x60]
  0000000000000E64: FD405BF0  ldr         d16,[sp,#0xB0]
  0000000000000E68: FD002FF0  str         d16,[sp,#0x58]
  0000000000000E6C: FD402FF1  ldr         d17,[sp,#0x58]
  0000000000000E70: FD4033F0  ldr         d16,[sp,#0x60]
  0000000000000E74: 1E702A31  fadd        d17,d17,d16
  0000000000000E78: FD4037F0  ldr         d16,[sp,#0x68]
  0000000000000E7C: 1E702A31  fadd        d17,d17,d16
  0000000000000E80: FD403BF0  ldr         d16,[sp,#0x70]
  0000000000000E84: 1E702A30  fadd        d16,d17,d16
  0000000000000E88: FD000BF0  str         d16,[sp,#0x10]
$LN2:
  0000000000000E8C: D2800008  mov         x8,#0
  0000000000000E90: F90003E8  str         x8,[sp]
  0000000000000E94: FD400BE0  ldr         d0,[sp,#0x10]
  0000000000000E98: 910343FF  add         sp,sp,#0xD0
  0000000000000E9C: 910103FF  add         sp,sp,#0x40
  0000000000000EA0: D65F03C0  ret
  0000000000000EA4: 00000000
sum_spilled_struct_hfa_floats:
  0000000000000EA8: D10043FF  sub         sp,sp,#0x10
  0000000000000EAC: F90007E7  str         x7,[sp,#8]
  0000000000000EB0: D10243FF  sub         sp,sp,#0x90
  0000000000000EB4: B90033E0  str         w0,[sp,#0x30]
  0000000000000EB8: B90017E1  str         w1,[sp,#0x14]
  0000000000000EBC: B9001BE2  str         w2,[sp,#0x18]
  0000000000000EC0: B9001FE3  str         w3,[sp,#0x1C]
  0000000000000EC4: B90023E4  str         w4,[sp,#0x20]
  0000000000000EC8: B90027E5  str         w5,[sp,#0x24]
  0000000000000ECC: B9002BE6  str         w6,[sp,#0x28]
  0000000000000ED0: 910263E8  add         x8,sp,#0x98
  0000000000000ED4: F90007E8  str         x8,[sp,#8]
  0000000000000ED8: B94017E9  ldr         w9,[sp,#0x14]
  0000000000000EDC: B9401BE8  ldr         w8,[sp,#0x18]
  0000000000000EE0: 0B080129  add         w9,w9,w8
  0000000000000EE4: B9401FE8  ldr         w8,[sp,#0x1C]
  0000000000000EE8: 0B080129  add         w9,w9,w8
  0000000000000EEC: B94023E8  ldr         w8,[sp,#0x20]
  0000000000000EF0: 0B080129  add         w9,w9,w8
  0000000000000EF4: B94027E8  ldr         w8,[sp,#0x24]
  0000000000000EF8: 0B080129  add         w9,w9,w8
  0000000000000EFC: B9402BE8  ldr         w8,[sp,#0x28]
  0000000000000F00: 0B080128  add         w8,w9,w8
  0000000000000F04: B9002FE8  str         w8,[sp,#0x2C]
  0000000000000F08: B9402FE8  ldr         w8,[sp,#0x2C]
  0000000000000F0C: 1E220110  scvtf       s16,w8
  0000000000000F10: BD0003F0  str         s16,[sp]
  0000000000000F14: B94033E8  ldr         w8,[sp,#0x30]
  0000000000000F18: B90013E8  str         w8,[sp,#0x10]
  0000000000000F1C: B94013E8  ldr         w8,[sp,#0x10]
  0000000000000F20: 7100051F  cmp         w8,#1
  0000000000000F24: 54000160  beq         $LN4
  0000000000000F28: B94013E8  ldr         w8,[sp,#0x10]
  0000000000000F2C: 7100091F  cmp         w8,#2
  0000000000000F30: 54000360  beq         $LN5
  0000000000000F34: B94013E8  ldr         w8,[sp,#0x10]
  0000000000000F38: 71000D1F  cmp         w8,#3
  0000000000000F3C: 540005E0  beq         $LN6
  0000000000000F40: B94013E8  ldr         w8,[sp,#0x10]
  0000000000000F44: 7100111F  cmp         w8,#4
  0000000000000F48: 54000920  beq         $LN7
  0000000000000F4C: 14000066  b           $LN2
$LN4:
  0000000000000F50: D2800009  mov         x9,#0
  0000000000000F54: F94007E8  ldr         x8,[sp,#8]
  0000000000000F58: CB080128  sub         x8,x9,x8
  0000000000000F5C: 92400508  and         x8,x8,#3
  0000000000000F60: 91002109  add         x9,x8,#8
  0000000000000F64: F94007E8  ldr         x8,[sp,#8]
  0000000000000F68: 8B090108  add         x8,x8,x9
  0000000000000F6C: F90007E8  str         x8,[sp,#8]
  0000000000000F70: F94007E8  ldr         x8,[sp,#8]
  0000000000000F74: D1002108  sub         x8,x8,#8
  0000000000000F78: B9400108  ldr         w8,[x8]
  0000000000000F7C: B90037E8  str         w8,[sp,#0x34]
  0000000000000F80: BD4037F0  ldr         s16,[sp,#0x34]
  0000000000000F84: BD003BF0  str         s16,[sp,#0x38]
  0000000000000F88: BD4003F1  ldr         s17,[sp]
  0000000000000F8C: BD403BF0  ldr         s16,[sp,#0x38]
  0000000000000F90: 1E302A30  fadd        s16,s17,s16
  0000000000000F94: BD0003F0  str         s16,[sp]
  0000000000000F98: 14000053  b           $LN2
$LN5:
  0000000000000F9C: D2800009  mov         x9,#0
  0000000000000FA0: F94007E8  ldr         x8,[sp,#8]
  0000000000000FA4: CB080128  sub         x8,x9,x8
  0000000000000FA8: 92400508  and         x8,x8,#3
  0000000000000FAC: 91002109  add         x9,x8,#8
  0000000000000FB0: F94007E8  ldr         x8,[sp,#8]
  0000000000000FB4: 8B090108  add         x8,x8,x9
  0000000000000FB8: F90007E8  str         x8,[sp,#8]
  0000000000000FBC: F94007E8  ldr         x8,[sp,#8]
  0000000000000FC0: D1002108  sub         x8,x8,#8
  0000000000000FC4: F9400108  ldr         x8,[x8]
  0000000000000FC8: F9003FE8  str         x8,[sp,#0x78]
  0000000000000FCC: BD407FF0  ldr         s16,[sp,#0x7C]
  0000000000000FD0: BD0047F0  str         s16,[sp,#0x44]
  0000000000000FD4: BD407BF0  ldr         s16,[sp,#0x78]
  0000000000000FD8: BD0043F0  str         s16,[sp,#0x40]
  0000000000000FDC: BD4043F1  ldr         s17,[sp,#0x40]
  0000000000000FE0: BD4047F0  ldr         s16,[sp,#0x44]
  0000000000000FE4: 1E302A31  fadd        s17,s17,s16
  0000000000000FE8: BD4003F0  ldr         s16,[sp]
  0000000000000FEC: 1E312A10  fadd        s16,s16,s17
  0000000000000FF0: BD0003F0  str         s16,[sp]
  0000000000000FF4: 1400003C  b           $LN2
$LN6:
  0000000000000FF8: D2800009  mov         x9,#0
  0000000000000FFC: F94007E8  ldr         x8,[sp,#8]
  0000000000001000: CB080128  sub         x8,x9,x8
  0000000000001004: 92400508  and         x8,x8,#3
  0000000000001008: 91004109  add         x9,x8,#0x10
  000000000000100C: F94007E8  ldr         x8,[sp,#8]
  0000000000001010: 8B090108  add         x8,x8,x9
  0000000000001014: F90007E8  str         x8,[sp,#8]
  0000000000001018: F94007E8  ldr         x8,[sp,#8]
  000000000000101C: D1004109  sub         x9,x8,#0x10
  0000000000001020: F9400128  ldr         x8,[x9]
  0000000000001024: F90037E8  str         x8,[sp,#0x68]
  0000000000001028: B9400928  ldr         w8,[x9,#8]
  000000000000102C: B90073E8  str         w8,[sp,#0x70]
  0000000000001030: BD4073F0  ldr         s16,[sp,#0x70]
  0000000000001034: BD0053F0  str         s16,[sp,#0x50]
  0000000000001038: BD406FF0  ldr         s16,[sp,#0x6C]
  000000000000103C: BD004FF0  str         s16,[sp,#0x4C]
  0000000000001040: BD406BF0  ldr         s16,[sp,#0x68]
  0000000000001044: BD004BF0  str         s16,[sp,#0x48]
  0000000000001048: BD404BF1  ldr         s17,[sp,#0x48]
  000000000000104C: BD404FF0  ldr         s16,[sp,#0x4C]
  0000000000001050: 1E302A31  fadd        s17,s17,s16
  0000000000001054: BD4053F0  ldr         s16,[sp,#0x50]
  0000000000001058: 1E302A31  fadd        s17,s17,s16
  000000000000105C: BD4003F0  ldr         s16,[sp]
  0000000000001060: 1E312A10  fadd        s16,s16,s17
  0000000000001064: BD0003F0  str         s16,[sp]
  0000000000001068: 1400001F  b           $LN2
$LN7:
  000000000000106C: D2800009  mov         x9,#0
  0000000000001070: F94007E8  ldr         x8,[sp,#8]
  0000000000001074: CB080128  sub         x8,x9,x8
  0000000000001078: 92400508  and         x8,x8,#3
  000000000000107C: 91004109  add         x9,x8,#0x10
  0000000000001080: F94007E8  ldr         x8,[sp,#8]
  0000000000001084: 8B090108  add         x8,x8,x9
  0000000000001088: F90007E8  str         x8,[sp,#8]
  000000000000108C: F94007E8  ldr         x8,[sp,#8]
  0000000000001090: D1004108  sub         x8,x8,#0x10
  0000000000001094: 3DC00110  ldr         q16,[x8]
  0000000000001098: 3D8023F0  str         q16,[sp,#0x80]
  000000000000109C: BD408FF0  ldr         s16,[sp,#0x8C]
  00000000000010A0: BD0067F0  str         s16,[sp,#0x64]
  00000000000010A4: BD408BF0  ldr         s16,[sp,#0x88]
  00000000000010A8: BD0063F0  str         s16,[sp,#0x60]
  00000000000010AC: BD4087F0  ldr         s16,[sp,#0x84]
  00000000000010B0: BD005FF0  str         s16,[sp,#0x5C]
  00000000000010B4: BD4083F0  ldr         s16,[sp,#0x80]
  00000000000010B8: BD005BF0  str         s16,[sp,#0x58]
  00000000000010BC: BD405BF1  ldr         s17,[sp,#0x58]
  00000000000010C0: BD405FF0  ldr         s16,[sp,#0x5C]
  00000000000010C4: 1E302A31  fadd        s17,s17,s16
  00000000000010C8: BD4063F0  ldr         s16,[sp,#0x60]
  00000000000010CC: 1E302A31  fadd        s17,s17,s16
  00000000000010D0: BD4067F0  ldr         s16,[sp,#0x64]
  00000000000010D4: 1E302A31  fadd        s17,s17,s16
  00000000000010D8: BD4003F0  ldr         s16,[sp]
  00000000000010DC: 1E312A10  fadd        s16,s16,s17
  00000000000010E0: BD0003F0  str         s16,[sp]
$LN2:
  00000000000010E4: D2800008  mov         x8,#0
  00000000000010E8: F90007E8  str         x8,[sp,#8]
  00000000000010EC: BD4003E0  ldr         s0,[sp]
  00000000000010F0: 910243FF  add         sp,sp,#0x90
  00000000000010F4: 910043FF  add         sp,sp,#0x10
  00000000000010F8: D65F03C0  ret
  00000000000010FC: 00000000
sum_spilled_struct_hfa_doubles:
  0000000000001100: D10043FF  sub         sp,sp,#0x10
  0000000000001104: F90007E7  str         x7,[sp,#8]
  0000000000001108: D101C3FF  sub         sp,sp,#0x70
  000000000000110C: B90037E0  str         w0,[sp,#0x34]
  0000000000001110: B9001BE1  str         w1,[sp,#0x18]
  0000000000001114: B9001FE2  str         w2,[sp,#0x1C]
  0000000000001118: B90023E3  str         w3,[sp,#0x20]
  000000000000111C: B90027E4  str         w4,[sp,#0x24]
  0000000000001120: B9002BE5  str         w5,[sp,#0x28]
  0000000000001124: B9002FE6  str         w6,[sp,#0x2C]
  0000000000001128: 9101E3E8  add         x8,sp,#0x78
  000000000000112C: F90003E8  str         x8,[sp]
  0000000000001130: B9401BE9  ldr         w9,[sp,#0x18]
  0000000000001134: B9401FE8  ldr         w8,[sp,#0x1C]
  0000000000001138: 0B080129  add         w9,w9,w8
  000000000000113C: B94023E8  ldr         w8,[sp,#0x20]
  0000000000001140: 0B080129  add         w9,w9,w8
  0000000000001144: B94027E8  ldr         w8,[sp,#0x24]
  0000000000001148: 0B080129  add         w9,w9,w8
  000000000000114C: B9402BE8  ldr         w8,[sp,#0x28]
  0000000000001150: 0B080129  add         w9,w9,w8
  0000000000001154: B9402FE8  ldr         w8,[sp,#0x2C]
  0000000000001158: 0B080128  add         w8,w9,w8
  000000000000115C: B90033E8  str         w8,[sp,#0x30]
  0000000000001160: B94033E8  ldr         w8,[sp,#0x30]
  0000000000001164: 1E620110  scvtf       d16,w8
  0000000000001168: FD000BF0  str         d16,[sp,#0x10]
  000000000000116C: B94037E8  ldr         w8,[sp,#0x34]
  0000000000001170: B9000BE8  str         w8,[sp,#8]
  0000000000001174: B9400BE8  ldr         w8,[sp,#8]
  0000000000001178: 7100051F  cmp         w8,#1
  000000000000117C: 540000A0  beq         $LN4
  0000000000001180: B9400BE8  ldr         w8,[sp,#8]
  0000000000001184: 7100091F  cmp         w8,#2
  0000000000001188: 540002A0  beq         $LN5
  000000000000118C: 1400002A  b           $LN2
$LN4:
  0000000000001190: D2800009  mov         x9,#0
  0000000000001194: F94003E8  ldr         x8,[sp]
  0000000000001198: CB080128  sub         x8,x9,x8
  000000000000119C: 92400908  and         x8,x8,#7
  00000000000011A0: 91002109  add         x9,x8,#8
  00000000000011A4: F94003E8  ldr         x8,[sp]
  00000000000011A8: 8B090108  add         x8,x8,x9
  00000000000011AC: F90003E8  str         x8,[sp]
  00000000000011B0: F94003E8  ldr         x8,[sp]
  00000000000011B4: D1002108  sub         x8,x8,#8
  00000000000011B8: F9400108  ldr         x8,[x8]
  00000000000011BC: F9001FE8  str         x8,[sp,#0x38]
  00000000000011C0: FD401FF0  ldr         d16,[sp,#0x38]
  00000000000011C4: FD0023F0  str         d16,[sp,#0x40]
  00000000000011C8: FD400BF1  ldr         d17,[sp,#0x10]
  00000000000011CC: FD4023F0  ldr         d16,[sp,#0x40]
  00000000000011D0: 1E702A30  fadd        d16,d17,d16
  00000000000011D4: FD000BF0  str         d16,[sp,#0x10]
  00000000000011D8: 14000017  b           $LN2
$LN5:
  00000000000011DC: D2800009  mov         x9,#0
  00000000000011E0: F94003E8  ldr         x8,[sp]
  00000000000011E4: CB080128  sub         x8,x9,x8
  00000000000011E8: 92400908  and         x8,x8,#7
  00000000000011EC: 91004109  add         x9,x8,#0x10
  00000000000011F0: F94003E8  ldr         x8,[sp]
  00000000000011F4: 8B090108  add         x8,x8,x9
  00000000000011F8: F90003E8  str         x8,[sp]
  00000000000011FC: F94003E8  ldr         x8,[sp]
  0000000000001200: D1004108  sub         x8,x8,#0x10
  0000000000001204: 3DC00110  ldr         q16,[x8]
  0000000000001208: 3D801BF0  str         q16,[sp,#0x60]
  000000000000120C: FD4037F0  ldr         d16,[sp,#0x68]
  0000000000001210: FD002BF0  str         d16,[sp,#0x50]
  0000000000001214: FD4033F0  ldr         d16,[sp,#0x60]
  0000000000001218: FD0027F0  str         d16,[sp,#0x48]
  000000000000121C: FD4027F1  ldr         d17,[sp,#0x48]
  0000000000001220: FD402BF0  ldr         d16,[sp,#0x50]
  0000000000001224: 1E702A31  fadd        d17,d17,d16
  0000000000001228: FD400BF0  ldr         d16,[sp,#0x10]
  000000000000122C: 1E712A10  fadd        d16,d16,d17
  0000000000001230: FD000BF0  str         d16,[sp,#0x10]
$LN2:
  0000000000001234: D2800008  mov         x8,#0
  0000000000001238: F90003E8  str         x8,[sp]
  000000000000123C: FD400BE0  ldr         d0,[sp,#0x10]
  0000000000001240: 9101C3FF  add         sp,sp,#0x70
  0000000000001244: 910043FF  add         sp,sp,#0x10
  0000000000001248: D65F03C0  ret
  000000000000124C: 00000000
sum_spilled_struct_ints:
  0000000000001250: A9BE7BFD  stp         fp,lr,[sp,#-0x20]!
  0000000000001254: F9000FE7  str         x7,[sp,#0x18]
  0000000000001258: 910003FD  mov         fp,sp
  000000000000125C: 94000000  bl          __security_push_cookie
  0000000000001260: D10243FF  sub         sp,sp,#0x90
  0000000000001264: B9002FE0  str         w0,[sp,#0x2C]
  0000000000001268: B90017E1  str         w1,[sp,#0x14]
  000000000000126C: B9001BE2  str         w2,[sp,#0x18]
  0000000000001270: B9001FE3  str         w3,[sp,#0x1C]
  0000000000001274: B90023E4  str         w4,[sp,#0x20]
  0000000000001278: B90027E5  str         w5,[sp,#0x24]
  000000000000127C: B9002BE6  str         w6,[sp,#0x28]
  0000000000001280: 9102E3E8  add         x8,sp,#0xB8
  0000000000001284: F90007E8  str         x8,[sp,#8]
  0000000000001288: B94017E9  ldr         w9,[sp,#0x14]
  000000000000128C: B9401BE8  ldr         w8,[sp,#0x18]
  0000000000001290: 0B080129  add         w9,w9,w8
  0000000000001294: B9401FE8  ldr         w8,[sp,#0x1C]
  0000000000001298: 0B080129  add         w9,w9,w8
  000000000000129C: B94023E8  ldr         w8,[sp,#0x20]
  00000000000012A0: 0B080129  add         w9,w9,w8
  00000000000012A4: B94027E8  ldr         w8,[sp,#0x24]
  00000000000012A8: 0B080129  add         w9,w9,w8
  00000000000012AC: B9402BE8  ldr         w8,[sp,#0x28]
  00000000000012B0: 0B080128  add         w8,w9,w8
  00000000000012B4: B90003E8  str         w8,[sp]
  00000000000012B8: B9402FE8  ldr         w8,[sp,#0x2C]
  00000000000012BC: B90013E8  str         w8,[sp,#0x10]
  00000000000012C0: B94013E8  ldr         w8,[sp,#0x10]
  00000000000012C4: 7100051F  cmp         w8,#1
  00000000000012C8: 54000160  beq         $LN4
  00000000000012CC: B94013E8  ldr         w8,[sp,#0x10]
  00000000000012D0: 7100091F  cmp         w8,#2
  00000000000012D4: 54000360  beq         $LN5
  00000000000012D8: B94013E8  ldr         w8,[sp,#0x10]
  00000000000012DC: 71000D1F  cmp         w8,#3
  00000000000012E0: 540005A0  beq         $LN6
  00000000000012E4: B94013E8  ldr         w8,[sp,#0x10]
  00000000000012E8: 7100111F  cmp         w8,#4
  00000000000012EC: 540008A0  beq         $LN7
  00000000000012F0: 1400005C  b           $LN2
$LN4:
  00000000000012F4: D2800009  mov         x9,#0
  00000000000012F8: F94007E8  ldr         x8,[sp,#8]
  00000000000012FC: CB080128  sub         x8,x9,x8
  0000000000001300: 92400508  and         x8,x8,#3
  0000000000001304: 91002109  add         x9,x8,#8
  0000000000001308: F94007E8  ldr         x8,[sp,#8]
  000000000000130C: 8B090108  add         x8,x8,x9
  0000000000001310: F90007E8  str         x8,[sp,#8]
  0000000000001314: F94007E8  ldr         x8,[sp,#8]
  0000000000001318: D1002108  sub         x8,x8,#8
  000000000000131C: B9400108  ldr         w8,[x8]
  0000000000001320: B90033E8  str         w8,[sp,#0x30]
  0000000000001324: B94033E8  ldr         w8,[sp,#0x30]
  0000000000001328: B90037E8  str         w8,[sp,#0x34]
  000000000000132C: B94003E9  ldr         w9,[sp]
  0000000000001330: B94037E8  ldr         w8,[sp,#0x34]
  0000000000001334: 0B080128  add         w8,w9,w8
  0000000000001338: B90003E8  str         w8,[sp]
  000000000000133C: 14000049  b           $LN2
$LN5:
  0000000000001340: D2800009  mov         x9,#0
  0000000000001344: F94007E8  ldr         x8,[sp,#8]
  0000000000001348: CB080128  sub         x8,x9,x8
  000000000000134C: 92400508  and         x8,x8,#3
  0000000000001350: 91002109  add         x9,x8,#8
  0000000000001354: F94007E8  ldr         x8,[sp,#8]
  0000000000001358: 8B090108  add         x8,x8,x9
  000000000000135C: F90007E8  str         x8,[sp,#8]
  0000000000001360: F94007E8  ldr         x8,[sp,#8]
  0000000000001364: D1002108  sub         x8,x8,#8
  0000000000001368: F9400108  ldr         x8,[x8]
  000000000000136C: F9002BE8  str         x8,[sp,#0x50]
  0000000000001370: F9402BE8  ldr         x8,[sp,#0x50]
  0000000000001374: F9001FE8  str         x8,[sp,#0x38]
  0000000000001378: B9403BE9  ldr         w9,[sp,#0x38]
  000000000000137C: B9403FE8  ldr         w8,[sp,#0x3C]
  0000000000001380: 0B080129  add         w9,w9,w8
  0000000000001384: B94003E8  ldr         w8,[sp]
  0000000000001388: 0B090108  add         w8,w8,w9
  000000000000138C: B90003E8  str         w8,[sp]
  0000000000001390: 14000034  b           $LN2
$LN6:
  0000000000001394: D2800009  mov         x9,#0
  0000000000001398: F94007E8  ldr         x8,[sp,#8]
  000000000000139C: CB080128  sub         x8,x9,x8
  00000000000013A0: 92400508  and         x8,x8,#3
  00000000000013A4: 91004109  add         x9,x8,#0x10
  00000000000013A8: F94007E8  ldr         x8,[sp,#8]
  00000000000013AC: 8B090108  add         x8,x8,x9
  00000000000013B0: F90007E8  str         x8,[sp,#8]
  00000000000013B4: F94007E8  ldr         x8,[sp,#8]
  00000000000013B8: D1004109  sub         x9,x8,#0x10
  00000000000013BC: F9400128  ldr         x8,[x9]
  00000000000013C0: F90023E8  str         x8,[sp,#0x40]
  00000000000013C4: B9400928  ldr         w8,[x9,#8]
  00000000000013C8: B9004BE8  str         w8,[sp,#0x48]
  00000000000013CC: F94023E8  ldr         x8,[sp,#0x40]
  00000000000013D0: F9003BE8  str         x8,[sp,#0x70]
  00000000000013D4: B9404BE8  ldr         w8,[sp,#0x48]
  00000000000013D8: B9007BE8  str         w8,[sp,#0x78]
  00000000000013DC: B94073E9  ldr         w9,[sp,#0x70]
  00000000000013E0: B94077E8  ldr         w8,[sp,#0x74]
  00000000000013E4: 0B080129  add         w9,w9,w8
  00000000000013E8: B9407BE8  ldr         w8,[sp,#0x78]
  00000000000013EC: 0B080129  add         w9,w9,w8
  00000000000013F0: B94003E8  ldr         w8,[sp]
  00000000000013F4: 0B090108  add         w8,w8,w9
  00000000000013F8: B90003E8  str         w8,[sp]
  00000000000013FC: 14000019  b           $LN2
$LN7:
  0000000000001400: D2800009  mov         x9,#0
  0000000000001404: F94007E8  ldr         x8,[sp,#8]
  0000000000001408: CB080128  sub         x8,x9,x8
  000000000000140C: 92400508  and         x8,x8,#3
  0000000000001410: 91004109  add         x9,x8,#0x10
  0000000000001414: F94007E8  ldr         x8,[sp,#8]
  0000000000001418: 8B090108  add         x8,x8,x9
  000000000000141C: F90007E8  str         x8,[sp,#8]
  0000000000001420: F94007E8  ldr         x8,[sp,#8]
  0000000000001424: D1004108  sub         x8,x8,#0x10
  0000000000001428: 3DC00110  ldr         q16,[x8]
  000000000000142C: 3D801BF0  str         q16,[sp,#0x60]
  0000000000001430: 3DC01BF0  ldr         q16,[sp,#0x60]
  0000000000001434: 3D8023F0  str         q16,[sp,#0x80]
  0000000000001438: B94083E9  ldr         w9,[sp,#0x80]
  000000000000143C: B94087E8  ldr         w8,[sp,#0x84]
  0000000000001440: 0B080129  add         w9,w9,w8
  0000000000001444: B9408BE8  ldr         w8,[sp,#0x88]
  0000000000001448: 0B080129  add         w9,w9,w8
  000000000000144C: B9408FE8  ldr         w8,[sp,#0x8C]
  0000000000001450: 0B080129  add         w9,w9,w8
  0000000000001454: B94003E8  ldr         w8,[sp]
  0000000000001458: 0B090108  add         w8,w8,w9
  000000000000145C: B90003E8  str         w8,[sp]
$LN2:
  0000000000001460: D2800008  mov         x8,#0
  0000000000001464: F90007E8  str         x8,[sp,#8]
  0000000000001468: B94003E0  ldr         w0,[sp]
  000000000000146C: 910243FF  add         sp,sp,#0x90
  0000000000001470: 94000000  bl          __security_pop_cookie
  0000000000001474: A8C27BFD  ldp         fp,lr,[sp],#0x20
  0000000000001478: D65F03C0  ret
  000000000000147C: 00000000
sum_spilled_struct_1int_nonvariadic:
  0000000000001480: D100C3FF  sub         sp,sp,#0x30
  0000000000001484: B90007E0  str         w0,[sp,#4]
  0000000000001488: B9000BE1  str         w1,[sp,#8]
  000000000000148C: B9000FE2  str         w2,[sp,#0xC]
  0000000000001490: B90013E3  str         w3,[sp,#0x10]
  0000000000001494: B90017E4  str         w4,[sp,#0x14]
  0000000000001498: B9001BE5  str         w5,[sp,#0x18]
  000000000000149C: B9001FE6  str         w6,[sp,#0x1C]
  00000000000014A0: B90023E7  str         w7,[sp,#0x20]
  00000000000014A4: B94007E9  ldr         w9,[sp,#4]
  00000000000014A8: B9400BE8  ldr         w8,[sp,#8]
  00000000000014AC: 0B080129  add         w9,w9,w8
  00000000000014B0: B9400FE8  ldr         w8,[sp,#0xC]
  00000000000014B4: 0B080129  add         w9,w9,w8
  00000000000014B8: B94013E8  ldr         w8,[sp,#0x10]
  00000000000014BC: 0B080129  add         w9,w9,w8
  00000000000014C0: B94017E8  ldr         w8,[sp,#0x14]
  00000000000014C4: 0B080129  add         w9,w9,w8
  00000000000014C8: B9401BE8  ldr         w8,[sp,#0x18]
  00000000000014CC: 0B080129  add         w9,w9,w8
  00000000000014D0: B9401FE8  ldr         w8,[sp,#0x1C]
  00000000000014D4: 0B080128  add         w8,w9,w8
  00000000000014D8: B90003E8  str         w8,[sp]
  00000000000014DC: B94003E9  ldr         w9,[sp]
  00000000000014E0: B94023E8  ldr         w8,[sp,#0x20]
  00000000000014E4: 0B080128  add         w8,w9,w8
  00000000000014E8: B90003E8  str         w8,[sp]
  00000000000014EC: B94003E0  ldr         w0,[sp]
  00000000000014F0: 9100C3FF  add         sp,sp,#0x30
  00000000000014F4: D65F03C0  ret
sum_spilled_struct_2ints_nonvariadic:
  00000000000014F8: D100C3FF  sub         sp,sp,#0x30
  00000000000014FC: B90007E0  str         w0,[sp,#4]
  0000000000001500: B9000BE1  str         w1,[sp,#8]
  0000000000001504: B9000FE2  str         w2,[sp,#0xC]
  0000000000001508: B90013E3  str         w3,[sp,#0x10]
  000000000000150C: B90017E4  str         w4,[sp,#0x14]
  0000000000001510: B9001BE5  str         w5,[sp,#0x18]
  0000000000001514: B9001FE6  str         w6,[sp,#0x1C]
  0000000000001518: F90013E7  str         x7,[sp,#0x20]
  000000000000151C: B94007E9  ldr         w9,[sp,#4]
  0000000000001520: B9400BE8  ldr         w8,[sp,#8]
  0000000000001524: 0B080129  add         w9,w9,w8
  0000000000001528: B9400FE8  ldr         w8,[sp,#0xC]
  000000000000152C: 0B080129  add         w9,w9,w8
  0000000000001530: B94013E8  ldr         w8,[sp,#0x10]
  0000000000001534: 0B080129  add         w9,w9,w8
  0000000000001538: B94017E8  ldr         w8,[sp,#0x14]
  000000000000153C: 0B080129  add         w9,w9,w8
  0000000000001540: B9401BE8  ldr         w8,[sp,#0x18]
  0000000000001544: 0B080129  add         w9,w9,w8
  0000000000001548: B9401FE8  ldr         w8,[sp,#0x1C]
  000000000000154C: 0B080128  add         w8,w9,w8
  0000000000001550: B90003E8  str         w8,[sp]
  0000000000001554: B94023E9  ldr         w9,[sp,#0x20]
  0000000000001558: B94027E8  ldr         w8,[sp,#0x24]
  000000000000155C: 0B080129  add         w9,w9,w8
  0000000000001560: B94003E8  ldr         w8,[sp]
  0000000000001564: 0B090108  add         w8,w8,w9
  0000000000001568: B90003E8  str         w8,[sp]
  000000000000156C: B94003E0  ldr         w0,[sp]
  0000000000001570: 9100C3FF  add         sp,sp,#0x30
  0000000000001574: D65F03C0  ret
sum_spilled_struct_3ints_nonvariadic:
  0000000000001578: D10083FF  sub         sp,sp,#0x20
  000000000000157C: B90007E0  str         w0,[sp,#4]
  0000000000001580: B9000BE1  str         w1,[sp,#8]
  0000000000001584: B9000FE2  str         w2,[sp,#0xC]
  0000000000001588: B90013E3  str         w3,[sp,#0x10]
  000000000000158C: B90017E4  str         w4,[sp,#0x14]
  0000000000001590: B9001BE5  str         w5,[sp,#0x18]
  0000000000001594: B9001FE6  str         w6,[sp,#0x1C]
  0000000000001598: B94007E9  ldr         w9,[sp,#4]
  000000000000159C: B9400BE8  ldr         w8,[sp,#8]
  00000000000015A0: 0B080129  add         w9,w9,w8
  00000000000015A4: B9400FE8  ldr         w8,[sp,#0xC]
  00000000000015A8: 0B080129  add         w9,w9,w8
  00000000000015AC: B94013E8  ldr         w8,[sp,#0x10]
  00000000000015B0: 0B080129  add         w9,w9,w8
  00000000000015B4: B94017E8  ldr         w8,[sp,#0x14]
  00000000000015B8: 0B080129  add         w9,w9,w8
  00000000000015BC: B9401BE8  ldr         w8,[sp,#0x18]
  00000000000015C0: 0B080129  add         w9,w9,w8
  00000000000015C4: B9401FE8  ldr         w8,[sp,#0x1C]
  00000000000015C8: 0B080128  add         w8,w9,w8
  00000000000015CC: B90003E8  str         w8,[sp]
  00000000000015D0: B94023E9  ldr         w9,[sp,#0x20]
  00000000000015D4: B94027E8  ldr         w8,[sp,#0x24]
  00000000000015D8: 0B080129  add         w9,w9,w8
  00000000000015DC: B9402BE8  ldr         w8,[sp,#0x28]
  00000000000015E0: 0B080129  add         w9,w9,w8
  00000000000015E4: B94003E8  ldr         w8,[sp]
  00000000000015E8: 0B090108  add         w8,w8,w9
  00000000000015EC: B90003E8  str         w8,[sp]
  00000000000015F0: B94003E0  ldr         w0,[sp]
  00000000000015F4: 910083FF  add         sp,sp,#0x20
  00000000000015F8: D65F03C0  ret
  00000000000015FC: 00000000
sum_spilled_struct_4ints_nonvariadic:
  0000000000001600: D10083FF  sub         sp,sp,#0x20
  0000000000001604: B90007E0  str         w0,[sp,#4]
  0000000000001608: B9000BE1  str         w1,[sp,#8]
  000000000000160C: B9000FE2  str         w2,[sp,#0xC]
  0000000000001610: B90013E3  str         w3,[sp,#0x10]
  0000000000001614: B90017E4  str         w4,[sp,#0x14]
  0000000000001618: B9001BE5  str         w5,[sp,#0x18]
  000000000000161C: B9001FE6  str         w6,[sp,#0x1C]
  0000000000001620: B94007E9  ldr         w9,[sp,#4]
  0000000000001624: B9400BE8  ldr         w8,[sp,#8]
  0000000000001628: 0B080129  add         w9,w9,w8
  000000000000162C: B9400FE8  ldr         w8,[sp,#0xC]
  0000000000001630: 0B080129  add         w9,w9,w8
  0000000000001634: B94013E8  ldr         w8,[sp,#0x10]
  0000000000001638: 0B080129  add         w9,w9,w8
  000000000000163C: B94017E8  ldr         w8,[sp,#0x14]
  0000000000001640: 0B080129  add         w9,w9,w8
  0000000000001644: B9401BE8  ldr         w8,[sp,#0x18]
  0000000000001648: 0B080129  add         w9,w9,w8
  000000000000164C: B9401FE8  ldr         w8,[sp,#0x1C]
  0000000000001650: 0B080128  add         w8,w9,w8
  0000000000001654: B90003E8  str         w8,[sp]
  0000000000001658: B94023E9  ldr         w9,[sp,#0x20]
  000000000000165C: B94027E8  ldr         w8,[sp,#0x24]
  0000000000001660: 0B080129  add         w9,w9,w8
  0000000000001664: B9402BE8  ldr         w8,[sp,#0x28]
  0000000000001668: 0B080129  add         w9,w9,w8
  000000000000166C: B9402FE8  ldr         w8,[sp,#0x2C]
  0000000000001670: 0B080129  add         w9,w9,w8
  0000000000001674: B94003E8  ldr         w8,[sp]
  0000000000001678: 0B090108  add         w8,w8,w9
  000000000000167C: B90003E8  str         w8,[sp]
  0000000000001680: B94003E0  ldr         w0,[sp]
  0000000000001684: 910083FF  add         sp,sp,#0x20
  0000000000001688: D65F03C0  ret
  000000000000168C: 00000000
sum_spilled_struct_hfa_1float_nonvariadic:
  0000000000001690: D100C3FF  sub         sp,sp,#0x30
  0000000000001694: BD0007E0  str         s0,[sp,#4]
  0000000000001698: BD000BE1  str         s1,[sp,#8]
  000000000000169C: BD000FE2  str         s2,[sp,#0xC]
  00000000000016A0: BD0013E3  str         s3,[sp,#0x10]
  00000000000016A4: BD0017E4  str         s4,[sp,#0x14]
  00000000000016A8: BD001BE5  str         s5,[sp,#0x18]
  00000000000016AC: BD001FE6  str         s6,[sp,#0x1C]
  00000000000016B0: BD0023E7  str         s7,[sp,#0x20]
  00000000000016B4: BD4007F1  ldr         s17,[sp,#4]
  00000000000016B8: BD400BF0  ldr         s16,[sp,#8]
  00000000000016BC: 1E302A31  fadd        s17,s17,s16
  00000000000016C0: BD400FF0  ldr         s16,[sp,#0xC]
  00000000000016C4: 1E302A31  fadd        s17,s17,s16
  00000000000016C8: BD4013F0  ldr         s16,[sp,#0x10]
  00000000000016CC: 1E302A31  fadd        s17,s17,s16
  00000000000016D0: BD4017F0  ldr         s16,[sp,#0x14]
  00000000000016D4: 1E302A31  fadd        s17,s17,s16
  00000000000016D8: BD401BF0  ldr         s16,[sp,#0x18]
  00000000000016DC: 1E302A31  fadd        s17,s17,s16
  00000000000016E0: BD401FF0  ldr         s16,[sp,#0x1C]
  00000000000016E4: 1E302A30  fadd        s16,s17,s16
  00000000000016E8: BD0003F0  str         s16,[sp]
  00000000000016EC: BD4003F1  ldr         s17,[sp]
  00000000000016F0: BD4023F0  ldr         s16,[sp,#0x20]
  00000000000016F4: 1E302A30  fadd        s16,s17,s16
  00000000000016F8: BD0003F0  str         s16,[sp]
  00000000000016FC: BD4003E0  ldr         s0,[sp]
  0000000000001700: 9100C3FF  add         sp,sp,#0x30
  0000000000001704: D65F03C0  ret
sum_spilled_struct_hfa_2floats_nonvariadic:
  0000000000001708: D10083FF  sub         sp,sp,#0x20
  000000000000170C: BD0007E0  str         s0,[sp,#4]
  0000000000001710: BD000BE1  str         s1,[sp,#8]
  0000000000001714: BD000FE2  str         s2,[sp,#0xC]
  0000000000001718: BD0013E3  str         s3,[sp,#0x10]
  000000000000171C: BD0017E4  str         s4,[sp,#0x14]
  0000000000001720: BD001BE5  str         s5,[sp,#0x18]
  0000000000001724: BD001FE6  str         s6,[sp,#0x1C]
  0000000000001728: BD4007F1  ldr         s17,[sp,#4]
  000000000000172C: BD400BF0  ldr         s16,[sp,#8]
  0000000000001730: 1E302A31  fadd        s17,s17,s16
  0000000000001734: BD400FF0  ldr         s16,[sp,#0xC]
  0000000000001738: 1E302A31  fadd        s17,s17,s16
  000000000000173C: BD4013F0  ldr         s16,[sp,#0x10]
  0000000000001740: 1E302A31  fadd        s17,s17,s16
  0000000000001744: BD4017F0  ldr         s16,[sp,#0x14]
  0000000000001748: 1E302A31  fadd        s17,s17,s16
  000000000000174C: BD401BF0  ldr         s16,[sp,#0x18]
  0000000000001750: 1E302A31  fadd        s17,s17,s16
  0000000000001754: BD401FF0  ldr         s16,[sp,#0x1C]
  0000000000001758: 1E302A30  fadd        s16,s17,s16
  000000000000175C: BD0003F0  str         s16,[sp]
  0000000000001760: BD4023F1  ldr         s17,[sp,#0x20]
  0000000000001764: BD4027F0  ldr         s16,[sp,#0x24]
  0000000000001768: 1E302A31  fadd        s17,s17,s16
  000000000000176C: BD4003F0  ldr         s16,[sp]
  0000000000001770: 1E312A10  fadd        s16,s16,s17
  0000000000001774: BD0003F0  str         s16,[sp]
  0000000000001778: BD4003E0  ldr         s0,[sp]
  000000000000177C: 910083FF  add         sp,sp,#0x20
  0000000000001780: D65F03C0  ret
  0000000000001784: 00000000
sum_spilled_struct_hfa_3floats_nonvariadic:
  0000000000001788: D10083FF  sub         sp,sp,#0x20
  000000000000178C: BD0007E0  str         s0,[sp,#4]
  0000000000001790: BD000BE1  str         s1,[sp,#8]
  0000000000001794: BD000FE2  str         s2,[sp,#0xC]
  0000000000001798: BD0013E3  str         s3,[sp,#0x10]
  000000000000179C: BD0017E4  str         s4,[sp,#0x14]
  00000000000017A0: BD001BE5  str         s5,[sp,#0x18]
  00000000000017A4: BD001FE6  str         s6,[sp,#0x1C]
  00000000000017A8: BD4007F1  ldr         s17,[sp,#4]
  00000000000017AC: BD400BF0  ldr         s16,[sp,#8]
  00000000000017B0: 1E302A31  fadd        s17,s17,s16
  00000000000017B4: BD400FF0  ldr         s16,[sp,#0xC]
  00000000000017B8: 1E302A31  fadd        s17,s17,s16
  00000000000017BC: BD4013F0  ldr         s16,[sp,#0x10]
  00000000000017C0: 1E302A31  fadd        s17,s17,s16
  00000000000017C4: BD4017F0  ldr         s16,[sp,#0x14]
  00000000000017C8: 1E302A31  fadd        s17,s17,s16
  00000000000017CC: BD401BF0  ldr         s16,[sp,#0x18]
  00000000000017D0: 1E302A31  fadd        s17,s17,s16
  00000000000017D4: BD401FF0  ldr         s16,[sp,#0x1C]
  00000000000017D8: 1E302A30  fadd        s16,s17,s16
  00000000000017DC: BD0003F0  str         s16,[sp]
  00000000000017E0: BD4023F1  ldr         s17,[sp,#0x20]
  00000000000017E4: BD4027F0  ldr         s16,[sp,#0x24]
  00000000000017E8: 1E302A31  fadd        s17,s17,s16
  00000000000017EC: BD402BF0  ldr         s16,[sp,#0x28]
  00000000000017F0: 1E302A31  fadd        s17,s17,s16
  00000000000017F4: BD4003F0  ldr         s16,[sp]
  00000000000017F8: 1E312A10  fadd        s16,s16,s17
  00000000000017FC: BD0003F0  str         s16,[sp]
  0000000000001800: BD4003E0  ldr         s0,[sp]
  0000000000001804: 910083FF  add         sp,sp,#0x20
  0000000000001808: D65F03C0  ret
  000000000000180C: 00000000
sum_spilled_struct_hfa_4floats_nonvariadic:
  0000000000001810: D10083FF  sub         sp,sp,#0x20
  0000000000001814: BD0007E0  str         s0,[sp,#4]
  0000000000001818: BD000BE1  str         s1,[sp,#8]
  000000000000181C: BD000FE2  str         s2,[sp,#0xC]
  0000000000001820: BD0013E3  str         s3,[sp,#0x10]
  0000000000001824: BD0017E4  str         s4,[sp,#0x14]
  0000000000001828: BD001BE5  str         s5,[sp,#0x18]
  000000000000182C: BD001FE6  str         s6,[sp,#0x1C]
  0000000000001830: BD4007F1  ldr         s17,[sp,#4]
  0000000000001834: BD400BF0  ldr         s16,[sp,#8]
  0000000000001838: 1E302A31  fadd        s17,s17,s16
  000000000000183C: BD400FF0  ldr         s16,[sp,#0xC]
  0000000000001840: 1E302A31  fadd        s17,s17,s16
  0000000000001844: BD4013F0  ldr         s16,[sp,#0x10]
  0000000000001848: 1E302A31  fadd        s17,s17,s16
  000000000000184C: BD4017F0  ldr         s16,[sp,#0x14]
  0000000000001850: 1E302A31  fadd        s17,s17,s16
  0000000000001854: BD401BF0  ldr         s16,[sp,#0x18]
  0000000000001858: 1E302A31  fadd        s17,s17,s16
  000000000000185C: BD401FF0  ldr         s16,[sp,#0x1C]
  0000000000001860: 1E302A30  fadd        s16,s17,s16
  0000000000001864: BD0003F0  str         s16,[sp]
  0000000000001868: BD4023F1  ldr         s17,[sp,#0x20]
  000000000000186C: BD4027F0  ldr         s16,[sp,#0x24]
  0000000000001870: 1E302A31  fadd        s17,s17,s16
  0000000000001874: BD402BF0  ldr         s16,[sp,#0x28]
  0000000000001878: 1E302A31  fadd        s17,s17,s16
  000000000000187C: BD402FF0  ldr         s16,[sp,#0x2C]
  0000000000001880: 1E302A31  fadd        s17,s17,s16
  0000000000001884: BD4003F0  ldr         s16,[sp]
  0000000000001888: 1E312A10  fadd        s16,s16,s17
  000000000000188C: BD0003F0  str         s16,[sp]
  0000000000001890: BD4003E0  ldr         s0,[sp]
  0000000000001894: 910083FF  add         sp,sp,#0x20
  0000000000001898: D65F03C0  ret
  000000000000189C: 00000000
main:
  00000000000018A0: A9BD7BFD  stp         fp,lr,[sp,#-0x30]!
  00000000000018A4: 910003FD  mov         fp,sp
  00000000000018A8: D10043FF  sub         sp,sp,#0x10
  00000000000018AC: 1C000530  ldr         s16,$LN3
  00000000000018B0: BD002BF0  str         s16,[sp,#0x28]
  00000000000018B4: 1C000510  ldr         s16,$LN4
  00000000000018B8: BD002FF0  str         s16,[sp,#0x2C]
  00000000000018BC: 1E225010  fmov        s16,#4.5
  00000000000018C0: BD0033F0  str         s16,[sp,#0x30]
  00000000000018C4: 1C0004B0  ldr         s16,$LN5
  00000000000018C8: BD0037F0  str         s16,[sp,#0x34]
  00000000000018CC: BD4037E3  ldr         s3,[sp,#0x34]
  00000000000018D0: BD4033E2  ldr         s2,[sp,#0x30]
  00000000000018D4: BD402FE1  ldr         s1,[sp,#0x2C]
  00000000000018D8: BD402BE0  ldr         s0,[sp,#0x28]
  00000000000018DC: 18000400  ldr         w0,$LN6
  00000000000018E0: 94000000  bl          func_S_FFFF
  00000000000018E4: BD0027E0  str         s0,[sp,#0x24]
  00000000000018E8: F9401BE8  ldr         x8,[sp,#0x30]
  00000000000018EC: F90003E8  str         x8,[sp]
  00000000000018F0: F94017E7  ldr         x7,[sp,#0x28]
  00000000000018F4: 528000E6  mov         w6,#7
  00000000000018F8: 528000C5  mov         w5,#6
  00000000000018FC: 528000A4  mov         w4,#5
  0000000000001900: 52800083  mov         w3,#4
  0000000000001904: 52800062  mov         w2,#3
  0000000000001908: 52800041  mov         w1,#2
  000000000000190C: 52800080  mov         w0,#4
  0000000000001910: 94000000  bl          sum_spilled_struct_hfa_floats
  0000000000001914: BD0023E0  str         s0,[sp,#0x20]
  0000000000001918: BD4023F0  ldr         s16,[sp,#0x20]
  000000000000191C: 1E22C211  fcvt        d17,s16
  0000000000001920: BD4027F0  ldr         s16,[sp,#0x24]
  0000000000001924: 1E22C210  fcvt        d16,s16
  0000000000001928: 9E660222  fmov        x2,d17
  000000000000192C: 9E660201  fmov        x1,d16
  0000000000001930: 90000008  adrp        x8,$SG7707
  0000000000001934: 91000100  add         x0,x8,$SG7707
  0000000000001938: 94000000  bl          printf
  000000000000193C: 52800000  mov         w0,#0
  0000000000001940: 910043FF  add         sp,sp,#0x10
  0000000000001944: A8C37BFD  ldp         fp,lr,[sp],#0x30
  0000000000001948: D65F03C0  ret
  000000000000194C: D503201F  nop
$LN3:
  0000000000001950: 3F99999A
$LN4:
  0000000000001954: 4059999A
$LN5:
  0000000000001958: 40B33333
$LN6:
  000000000000195C: CAFE890A  eon         x10,x8,lr,ror #0x22

__local_stdio_printf_options:
  0000000000000000: 90000008  adrp        x8,?_OptionsStorage@?1??__local_stdio_printf_options@@9@9
  0000000000000004: 91000100  add         x0,x8,?_OptionsStorage@?1??__local_stdio_printf_options@@9@9
  0000000000000008: D65F03C0  ret

_vfprintf_l:
  0000000000000000: A9BD7BFD  stp         fp,lr,[sp,#-0x30]!
  0000000000000004: 910003FD  mov         fp,sp
  0000000000000008: F90017E0  str         x0,[sp,#0x28]
  000000000000000C: F90013E1  str         x1,[sp,#0x20]
  0000000000000010: F9000FE2  str         x2,[sp,#0x18]
  0000000000000014: F9000BE3  str         x3,[sp,#0x10]
  0000000000000018: 94000000  bl          __local_stdio_printf_options
  000000000000001C: F9400BE4  ldr         x4,[sp,#0x10]
  0000000000000020: F9400FE3  ldr         x3,[sp,#0x18]
  0000000000000024: F94013E2  ldr         x2,[sp,#0x20]
  0000000000000028: F94017E1  ldr         x1,[sp,#0x28]
  000000000000002C: F9400000  ldr         x0,[x0]
  0000000000000030: 94000000  bl          __stdio_common_vfprintf
  0000000000000034: 2A0003E0  mov         w0,w0
  0000000000000038: 2A0003E0  mov         w0,w0
  000000000000003C: A8C37BFD  ldp         fp,lr,[sp],#0x30
  0000000000000040: D65F03C0  ret

printf:
  0000000000000000: D10103FF  sub         sp,sp,#0x40
  0000000000000004: A9008BE1  stp         x1,x2,[sp,#8]
  0000000000000008: A90193E3  stp         x3,x4,[sp,#0x18]
  000000000000000C: A9029BE5  stp         x5,x6,[sp,#0x28]
  0000000000000010: F9001FE7  str         x7,[sp,#0x38]
  0000000000000014: A9BD7BFD  stp         fp,lr,[sp,#-0x30]!
  0000000000000018: 910003FD  mov         fp,sp
  000000000000001C: F90013E0  str         x0,[sp,#0x20]
  0000000000000020: 9100E3E8  add         x8,sp,#0x38
  0000000000000024: F9000FE8  str         x8,[sp,#0x18]
  0000000000000028: 52800020  mov         w0,#1
  000000000000002C: 94000000  bl          __acrt_iob_func
  0000000000000030: F9400FE3  ldr         x3,[sp,#0x18]
  0000000000000034: D2800002  mov         x2,#0
  0000000000000038: F94013E1  ldr         x1,[sp,#0x20]
  000000000000003C: 94000000  bl          _vfprintf_l
  0000000000000040: 2A0003E0  mov         w0,w0
  0000000000000044: B90013E0  str         w0,[sp,#0x10]
  0000000000000048: D2800008  mov         x8,#0
  000000000000004C: F9000FE8  str         x8,[sp,#0x18]
  0000000000000050: B94013E0  ldr         w0,[sp,#0x10]
  0000000000000054: A8C37BFD  ldp         fp,lr,[sp],#0x30
  0000000000000058: 910103FF  add         sp,sp,#0x40
  000000000000005C: D65F03C0  ret

  Summary

          68 .chks64
          15 .data
          9C .debug$S
          2F .drectve
         180 .pdata
        1A10 .text$mn
          DC .xdata
